LIBRARY "oraocci11d.dll"
EXPORTS
??0Agent@aq@occi@oracle@@AAE@PBVEnvironment@23@PAUOCIAQAgent@@_N@Z
??0Agent@aq@occi@oracle@@QAE@ABV0123@@Z
??0Agent@aq@occi@oracle@@QAE@PBVEnvironment@23@@Z
??0Agent@aq@occi@oracle@@QAE@PBVEnvironment@23@ABV?$basic_string@DU?$char_traits@D@std@@V?$allocator@D@2@@std@@1I@Z
??0AgentImpl@aq@occi@oracle@@QAE@PBVEnvironmentImpl@23@@Z
??0AgentImpl@aq@occi@oracle@@QAE@PBVEnvironmentImpl@23@ABV?$basic_string@DU?$char_traits@D@std@@V?$allocator@D@2@@std@@1I@Z
??0AgentImpl@aq@occi@oracle@@QAE@PBVEnvironmentImpl@23@PAUOCIAQAgent@@_N@Z
??0AnyData@occi@oracle@@QAE@ABV012@@Z
??0AnyData@occi@oracle@@QAE@PAX@Z
??0AnyData@occi@oracle@@QAE@PBVConnection@12@@Z
??0AnyData@occi@oracle@@QAE@PBVConnection@12@PAUOCIAnyData@@_N@Z
??0AnyDataImpl@occi@oracle@@QAE@PBUAnyDataCtx@12@@Z
??0AnyDataImpl@occi@oracle@@QAE@PBVConnection@12@@Z
??0AnyDataImpl@occi@oracle@@QAE@PBVConnection@12@PAUOCIAnyData@@_N@Z
??0BatchSQLException@occi@oracle@@AAE@PAVSQLExceptionImpl@12@@Z
??0BatchSQLException@occi@oracle@@QAE@ABV012@@Z
??0BatchSQLExceptionImpl@occi@oracle@@QAE@PAX0@Z
??0Bfile@occi@oracle@@AAE@PBVConnection@12@PAUOCILobLocator@@_N@Z
??0Bfile@occi@oracle@@QAE@ABV012@@Z
??0Bfile@occi@oracle@@QAE@PBVConnection@12@@Z
??0Bfile@occi@oracle@@QAE@XZ
??0Blob@occi@oracle@@AAE@PBVConnection@12@PAUOCILobLocator@@_N@Z
??0Blob@occi@oracle@@QAE@ABV012@@Z
??0Blob@occi@oracle@@QAE@PBVConnection@12@@Z
??0Blob@occi@oracle@@QAE@XZ
??0Bytes@occi@oracle@@AAE@PAUOCIEnv@@PAUOCIRaw@@@Z
??0Bytes@occi@oracle@@QAE@ABV012@@Z
??0Bytes@occi@oracle@@QAE@PAEIIPBVEnvironment@12@@Z
??0Bytes@occi@oracle@@QAE@PBVEnvironment@12@@Z
??0BytesImpl@occi@oracle@@QAE@PAXPAEII@Z
??0Clob@occi@oracle@@AAE@PBVConnection@12@PAUOCILobLocator@@_N@Z
??0Clob@occi@oracle@@QAE@ABV012@@Z
??0Clob@occi@oracle@@QAE@PBVConnection@12@@Z
??0Clob@occi@oracle@@QAE@XZ
??0ConnectionImpl@occi@oracle@@QAE@PAVConnectionPoolImpl@12@ABV?$basic_string@DU?$char_traits@D@std@@V?$allocator@D@2@@std@@1@Z
??0ConnectionImpl@occi@oracle@@QAE@PAVConnectionPoolImpl@12@ABV?$basic_string@DU?$char_traits@D@std@@V?$allocator@D@2@@std@@QAV45@HW4ProxyType@Connection@12@@Z
??0ConnectionImpl@occi@oracle@@QAE@PAVConnectionPoolImpl@12@ABV?$basic_string@DU?$char_traits@D@std@@V?$allocator@D@2@@std@@W4ProxyType@Connection@12@@Z
??0ConnectionImpl@occi@oracle@@QAE@PAVConnectionPoolImpl@12@ABV?$basic_string@GU?$char_traits@G@std@@V?$allocator@G@2@@std@@1@Z
??0ConnectionImpl@occi@oracle@@QAE@PAVConnectionPoolImpl@12@ABV?$basic_string@GU?$char_traits@G@std@@V?$allocator@G@2@@std@@QAV?$basic_string@DU?$char_traits@D@std@@V?$allocator@D@2@@5@HW4ProxyType@Connection@12@@Z
??0ConnectionImpl@occi@oracle@@QAE@PAVConnectionPoolImpl@12@ABV?$basic_string@GU?$char_traits@G@std@@V?$allocator@G@2@@std@@W4ProxyType@Connection@12@@Z
??0ConnectionImpl@occi@oracle@@QAE@PAVEnvironmentImpl@12@ABV?$basic_string@DU?$char_traits@D@std@@V?$allocator@D@2@@std@@11@Z
??0ConnectionImpl@occi@oracle@@QAE@PAVEnvironmentImpl@12@ABV?$basic_string@GU?$char_traits@G@std@@V?$allocator@G@2@@std@@11@Z
??0ConnectionImpl@occi@oracle@@QAE@PAVEnvironmentImpl@12@PAUOCISvcCtx@@@Z
??0ConnectionImpl@occi@oracle@@QAE@PAVStatelessConnectionPoolImpl@12@ABV?$basic_string@DU?$char_traits@D@std@@V?$allocator@D@2@@std@@11I@Z
??0ConnectionImpl@occi@oracle@@QAE@PAVStatelessConnectionPoolImpl@12@ABV?$basic_string@DU?$char_traits@D@std@@V?$allocator@D@2@@std@@1W4ProxyType@Connection@12@I@Z
??0ConnectionImpl@occi@oracle@@QAE@PAVStatelessConnectionPoolImpl@12@ABV?$basic_string@DU?$char_traits@D@std@@V?$allocator@D@2@@std@@QAV45@H1W4ProxyType@Connection@12@I@Z
??0ConnectionImpl@occi@oracle@@QAE@PAVStatelessConnectionPoolImpl@12@ABV?$basic_string@GU?$char_traits@G@std@@V?$allocator@G@2@@std@@11I@Z
??0ConnectionImpl@occi@oracle@@QAE@PAVStatelessConnectionPoolImpl@12@ABV?$basic_string@GU?$char_traits@G@std@@V?$allocator@G@2@@std@@1W4ProxyType@Connection@12@I@Z
??0ConnectionImpl@occi@oracle@@QAE@PAVStatelessConnectionPoolImpl@12@ABV?$basic_string@GU?$char_traits@G@std@@V?$allocator@G@2@@std@@QAV?$basic_string@DU?$char_traits@D@std@@V?$allocator@D@2@@5@H1W4ProxyType@Connection@12@I@Z
??0ConnectionPoolImpl@occi@oracle@@QAE@PAVEnvironmentImpl@12@ABV?$basic_string@DU?$char_traits@D@std@@V?$allocator@D@2@@std@@11III@Z
??0ConnectionPoolImpl@occi@oracle@@QAE@PAVEnvironmentImpl@12@ABV?$basic_string@GU?$char_traits@G@std@@V?$allocator@G@2@@std@@11III@Z
??0Consumer@aq@occi@oracle@@QAE@ABV0123@@Z
??0Consumer@aq@occi@oracle@@QAE@PBVConnection@23@@Z
??0Consumer@aq@occi@oracle@@QAE@PBVConnection@23@ABV?$basic_string@DU?$char_traits@D@std@@V?$allocator@D@2@@std@@@Z
??0Consumer@aq@occi@oracle@@QAE@PBVConnection@23@ABVAgent@123@@Z
??0ConsumerImpl@aq@occi@oracle@@QAE@PBVConnectionImpl@23@@Z
??0ConsumerImpl@aq@occi@oracle@@QAE@PBVConnectionImpl@23@ABVAgent@123@@Z
??0Date@occi@oracle@@AAE@PBVEnvironment@12@UOCIDate@@@Z
??0Date@occi@oracle@@QAE@ABV012@@Z
??0Date@occi@oracle@@QAE@PBVEnvironment@12@HIIIII@Z
??0Date@occi@oracle@@QAE@XZ
??0EnvironmentImpl@occi@oracle@@QAE@PAUOCIEnv@@W4Mode@Environment@12@@Z
??0IntervalDS@occi@oracle@@AAE@PAUOCIEnv@@PAUOCIInterval@@_N@Z
??0IntervalDS@occi@oracle@@QAE@ABV012@@Z
??0IntervalDS@occi@oracle@@QAE@PBVEnvironment@12@HHHHH@Z
??0IntervalDS@occi@oracle@@QAE@XZ
??0IntervalYM@occi@oracle@@AAE@PAUOCIEnv@@PAUOCIInterval@@_N@Z
??0IntervalYM@occi@oracle@@QAE@ABV012@@Z
??0IntervalYM@occi@oracle@@QAE@PBVEnvironment@12@HH@Z
??0IntervalYM@occi@oracle@@QAE@XZ
??0Listener@aq@occi@oracle@@QAE@PBVConnection@23@@Z
??0Listener@aq@occi@oracle@@QAE@PBVConnection@23@AAV?$vector@VAgent@aq@occi@oracle@@V?$allocator@VAgent@aq@occi@oracle@@@std@@@std@@H@Z
??0LobStreamImpl@occi@oracle@@QAE@PBVConnectionImpl@12@PAUOCILobLocator@@IIGW4CharSetForm@12@@Z
??0MapImpl@occi@oracle@@QAE@PAX0PAUOCIError@@@Z
??0Message@aq@occi@oracle@@AAE@PBVEnvironment@23@PBVConnection@23@PAUOCIAQMsgProperties@@PAXI_NW4PayloadType@0123@@Z
??0Message@aq@occi@oracle@@QAE@ABV0123@@Z
??0Message@aq@occi@oracle@@QAE@PBVEnvironment@23@@Z
??0MessageImpl@aq@occi@oracle@@QAE@PBVEnvironmentImpl@23@@Z
??0MessageImpl@aq@occi@oracle@@QAE@PBVEnvironmentImpl@23@PBVConnectionImpl@23@PAUOCIAQMsgProperties@@PAXI_NW4PayloadType@Message@123@@Z
??0MetaData@occi@oracle@@AAE@PBVConnection@12@ABV?$basic_string@DU?$char_traits@D@std@@V?$allocator@D@2@@std@@W4ParamType@012@@Z
??0MetaData@occi@oracle@@AAE@PBVConnection@12@ABV?$basic_string@GU?$char_traits@G@std@@V?$allocator@G@2@@std@@W4ParamType@012@@Z
??0MetaData@occi@oracle@@AAE@PBVConnection@12@ABVRefAny@12@@Z
??0MetaData@occi@oracle@@AAE@PBVConnection@12@PAVMetaDataImpl@12@PAUOCIParam@@@Z
??0MetaData@occi@oracle@@AAE@PBVConnection@12@PAVMetaDataImpl@12@PAUOCIParam@@E@Z
??0MetaData@occi@oracle@@QAE@ABV012@@Z
??0MetaDataImpl@occi@oracle@@QAE@PBVConnectionImpl@12@ABVRefAny@12@@Z
??0MetaDataImpl@occi@oracle@@QAE@PBVConnectionImpl@12@PAVStatement@12@@Z
??0MetaDataImpl@occi@oracle@@QAE@PBVConnectionImpl@12@PAXIW4ParamType@MetaData@12@@Z
??0NotifyResult@aq@occi@oracle@@AAE@PBVEnvironment@23@PAXI1I@Z
??0Number@occi@oracle@@AAE@ABUOCINumber@@@Z
??0Number@occi@oracle@@QAE@ABV012@@Z
??0Number@occi@oracle@@QAE@C@Z
??0Number@occi@oracle@@QAE@D@Z
??0Number@occi@oracle@@QAE@E@Z
??0Number@occi@oracle@@QAE@F@Z
??0Number@occi@oracle@@QAE@G@Z
??0Number@occi@oracle@@QAE@H@Z
??0Number@occi@oracle@@QAE@I@Z
??0Number@occi@oracle@@QAE@J@Z
??0Number@occi@oracle@@QAE@K@Z
??0Number@occi@oracle@@QAE@M@Z
??0Number@occi@oracle@@QAE@N@Z
??0Number@occi@oracle@@QAE@O@Z
??0Number@occi@oracle@@QAE@XZ
??0PObject@occi@oracle@@QAE@ABV012@@Z
??0PObject@occi@oracle@@QAE@PBX@Z
??0PObject@occi@oracle@@QAE@XZ
??0Producer@aq@occi@oracle@@QAE@ABV0123@@Z
??0Producer@aq@occi@oracle@@QAE@PBVConnection@23@@Z
??0Producer@aq@occi@oracle@@QAE@PBVConnection@23@ABV?$basic_string@DU?$char_traits@D@std@@V?$allocator@D@2@@std@@@Z
??0ProducerImpl@aq@occi@oracle@@QAE@PBVConnectionImpl@23@@Z
??0RefAny@occi@oracle@@QAE@ABV012@@Z
??0RefAny@occi@oracle@@QAE@PBVConnection@12@PBUOCIRef@@@Z
??0RefAny@occi@oracle@@QAE@PBVConnection@12@PBUOCIRef@@_N@Z
??0RefAny@occi@oracle@@QAE@XZ
??0RefCounted@occi@oracle@@QAE@XZ
??0RefImpl@occi@oracle@@QAE@ABV012@@Z
??0RefImpl@occi@oracle@@QAE@ABVRefAny@12@@Z
??0RefImpl@occi@oracle@@QAE@PAVPObject@12@@Z
??0RefImpl@occi@oracle@@QAE@PBVConnection@12@PAUOCIRef@@_N@Z
??0RefImpl@occi@oracle@@QAE@XZ
??0ResultSetImpl@occi@oracle@@QAE@PAVStatementImpl@12@PAUOCIStmt@@I@Z
??0RsStreamImpl@occi@oracle@@QAE@PAVResultSetImpl@12@PAUOCIDefine@@H@Z
??0SQLException@occi@oracle@@IAE@PAVSQLExceptionImpl@12@@Z
??0SQLException@occi@oracle@@QAE@ABV012@@Z
??0SQLException@occi@oracle@@QAE@XZ
??0SQLExceptionImpl@occi@oracle@@QAE@PAX0H@Z
??0SQLExceptionImpl@occi@oracle@@QAE@PAXH@Z
??0StatelessConnectionPoolImpl@occi@oracle@@QAE@PAVEnvironmentImpl@12@ABV?$basic_string@DU?$char_traits@D@std@@V?$allocator@D@2@@std@@11IIIW4PoolType@StatelessConnectionPool@12@@Z
??0StatelessConnectionPoolImpl@occi@oracle@@QAE@PAVEnvironmentImpl@12@ABV?$basic_string@GU?$char_traits@G@std@@V?$allocator@G@2@@std@@11IIIW4PoolType@StatelessConnectionPool@12@@Z
??0StatementImpl@occi@oracle@@QAE@PAVConnectionImpl@12@ABV?$basic_string@DU?$char_traits@D@std@@V?$allocator@D@2@@std@@1@Z
??0StatementImpl@occi@oracle@@QAE@PAVConnectionImpl@12@ABV?$basic_string@GU?$char_traits@G@std@@V?$allocator@G@2@@std@@1@Z
??0StmtStreamImpl@occi@oracle@@QAE@PAVStatementImpl@12@PAUOCIBind@@H@Z
??0Subscription@aq@occi@oracle@@QAE@ABV0123@@Z
??0Subscription@aq@occi@oracle@@QAE@PBVEnvironment@23@@Z
??0Subscription@aq@occi@oracle@@QAE@PBVEnvironment@23@PAUOCISubscription@@@Z
??0SubscriptionImpl@aq@occi@oracle@@QAE@PBVEnvironmentImpl@23@@Z
??0SubscriptionImpl@aq@occi@oracle@@QAE@PBVEnvironmentImpl@23@PAUOCISubscription@@@Z
??0Timestamp@occi@oracle@@QAE@ABV012@@Z
??0Timestamp@occi@oracle@@QAE@PBVEnvironment@12@HIIIIIIABV?$basic_string@DU?$char_traits@D@std@@V?$allocator@D@2@@std@@@Z
??0Timestamp@occi@oracle@@QAE@PBVEnvironment@12@HIIIIIIABV?$basic_string@GU?$char_traits@G@std@@V?$allocator@G@2@@std@@@Z
??0Timestamp@occi@oracle@@QAE@PBVEnvironment@12@HIIIIIIHH@Z
??0Timestamp@occi@oracle@@QAE@XZ
??1?$ConstPtr@VAgentImpl@aq@occi@oracle@@@occi@oracle@@QAE@XZ
??1?$ConstPtr@VAnyDataImpl@occi@oracle@@@occi@oracle@@QAE@XZ
??1?$ConstPtr@VBytesImpl@occi@oracle@@@occi@oracle@@QAE@XZ
??1?$ConstPtr@VConsumerImpl@aq@occi@oracle@@@occi@oracle@@QAE@XZ
??1?$ConstPtr@VMessageImpl@aq@occi@oracle@@@occi@oracle@@QAE@XZ
??1?$ConstPtr@VMetaDataImpl@occi@oracle@@@occi@oracle@@QAE@XZ
??1?$ConstPtr@VProducerImpl@aq@occi@oracle@@@occi@oracle@@QAE@XZ
??1?$ConstPtr@VSQLExceptionImpl@occi@oracle@@@occi@oracle@@QAE@XZ
??1?$ConstPtr@VSubscriptionImpl@aq@occi@oracle@@@occi@oracle@@QAE@XZ
??1?$HeapAlloc@VConnection@occi@oracle@@@occi@oracle@@UAE@XZ
??1?$HeapAlloc@VConnectionPool@occi@oracle@@@occi@oracle@@UAE@XZ
??1?$HeapAlloc@VEnvironment@occi@oracle@@@occi@oracle@@UAE@XZ
??1?$HeapAlloc@VMap@occi@oracle@@@occi@oracle@@UAE@XZ
??1?$HeapAlloc@VRefCounted@occi@oracle@@@occi@oracle@@UAE@XZ
??1?$HeapAlloc@VResultSet@occi@oracle@@@occi@oracle@@UAE@XZ
??1?$HeapAlloc@VStatelessConnectionPool@occi@oracle@@@occi@oracle@@UAE@XZ
??1?$HeapAlloc@VStatement@occi@oracle@@@occi@oracle@@UAE@XZ
??1?$HeapAlloc@VStream@occi@oracle@@@occi@oracle@@UAE@XZ
??1?$Ptr@VAgentImpl@aq@occi@oracle@@@occi@oracle@@QAE@XZ
??1?$Ptr@VAnyDataImpl@occi@oracle@@@occi@oracle@@QAE@XZ
??1?$Ptr@VBytesImpl@occi@oracle@@@occi@oracle@@QAE@XZ
??1?$Ptr@VConsumerImpl@aq@occi@oracle@@@occi@oracle@@QAE@XZ
??1?$Ptr@VMessageImpl@aq@occi@oracle@@@occi@oracle@@QAE@XZ
??1?$Ptr@VMetaDataImpl@occi@oracle@@@occi@oracle@@QAE@XZ
??1?$Ptr@VProducerImpl@aq@occi@oracle@@@occi@oracle@@QAE@XZ
??1?$Ptr@VSQLExceptionImpl@occi@oracle@@@occi@oracle@@QAE@XZ
??1?$Ptr@VSubscriptionImpl@aq@occi@oracle@@@occi@oracle@@QAE@XZ
??1?$list@PAXV?$allocator@PAX@std@@@std@@QAE@XZ
??1?$vector@IV?$allocator@I@std@@@std@@QAE@XZ
??1?$vector@PAUOCIParam@@V?$allocator@PAUOCIParam@@@std@@@std@@QAE@XZ
??1?$vector@PAUSchemaType@occi@oracle@@V?$allocator@PAUSchemaType@occi@oracle@@@std@@@std@@QAE@XZ
??1?$vector@V?$Ptr@VSQLExceptionImpl@occi@oracle@@@occi@oracle@@V?$allocator@V?$Ptr@VSQLExceptionImpl@occi@oracle@@@occi@oracle@@@std@@@std@@QAE@XZ
??1?$vector@V?$basic_string@DU?$char_traits@D@std@@V?$allocator@D@2@@std@@V?$allocator@V?$basic_string@DU?$char_traits@D@std@@V?$allocator@D@2@@std@@@2@@std@@QAE@XZ
??1?$vector@VAgent@aq@occi@oracle@@V?$allocator@VAgent@aq@occi@oracle@@@std@@@std@@QAE@XZ
??1?$vector@VMetaData@occi@oracle@@V?$allocator@VMetaData@occi@oracle@@@std@@@std@@QAE@XZ
??1Agent@aq@occi@oracle@@QAE@XZ
??1AgentImpl@aq@occi@oracle@@UAE@XZ
??1AnyData@occi@oracle@@QAE@XZ
??1AnyDataImpl@occi@oracle@@UAE@XZ
??1BatchSQLException@occi@oracle@@UAE@XZ
??1BatchSQLExceptionImpl@occi@oracle@@UAE@XZ
??1Bfile@occi@oracle@@QAE@XZ
??1Blob@occi@oracle@@QAE@XZ
??1Bytes@occi@oracle@@QAE@XZ
??1BytesImpl@occi@oracle@@UAE@XZ
??1Clob@occi@oracle@@QAE@XZ
??1ConnectionImpl@occi@oracle@@UAE@XZ
??1ConnectionPoolImpl@occi@oracle@@UAE@XZ
??1Consumer@aq@occi@oracle@@QAE@XZ
??1ConsumerImpl@aq@occi@oracle@@UAE@XZ
??1Date@occi@oracle@@QAE@XZ
??1EnvironmentImpl@occi@oracle@@EAE@XZ
??1IntervalDS@occi@oracle@@QAE@XZ
??1IntervalYM@occi@oracle@@QAE@XZ
??1Listener@aq@occi@oracle@@QAE@XZ
??1MapImpl@occi@oracle@@UAE@XZ
??1Message@aq@occi@oracle@@QAE@XZ
??1MessageImpl@aq@occi@oracle@@UAE@XZ
??1MetaData@occi@oracle@@QAE@XZ
??1MetaDataImpl@occi@oracle@@UAE@XZ
??1Number@occi@oracle@@QAE@XZ
??1PObject@occi@oracle@@UAE@XZ
??1Producer@aq@occi@oracle@@QAE@XZ
??1ProducerImpl@aq@occi@oracle@@UAE@XZ
??1RefAny@occi@oracle@@QAE@XZ
??1RefImpl@occi@oracle@@QAE@XZ
??1ResultSetImpl@occi@oracle@@UAE@XZ
??1RsStreamImpl@occi@oracle@@UAE@XZ
??1SQLException@occi@oracle@@UAE@XZ
??1SQLExceptionImpl@occi@oracle@@UAE@XZ
??1StatelessConnectionPoolImpl@occi@oracle@@UAE@XZ
??1StatementImpl@occi@oracle@@UAE@XZ
??1StmtStreamImpl@occi@oracle@@UAE@XZ
??1Subscription@aq@occi@oracle@@QAE@XZ
??1SubscriptionImpl@aq@occi@oracle@@UAE@XZ
??1Timestamp@occi@oracle@@QAE@XZ
??2PObject@occi@oracle@@SAPAXI@Z
??2PObject@occi@oracle@@SAPAXIPAX@Z
??2PObject@occi@oracle@@SAPAXIPBVConnection@12@ABV?$basic_string@DU?$char_traits@D@std@@V?$allocator@D@2@@std@@111@Z
??2PObject@occi@oracle@@SAPAXIPBVConnection@12@ABV?$basic_string@DU?$char_traits@D@std@@V?$allocator@D@2@@std@@PBD@Z
??2PObject@occi@oracle@@SAPAXIPBVConnection@12@ABV?$basic_string@GU?$char_traits@G@std@@V?$allocator@G@2@@std@@111@Z
??3?$HeapAlloc@VConnection@occi@oracle@@@occi@oracle@@SAXPAX0PBE@Z
??3?$HeapAlloc@VConnectionPool@occi@oracle@@@occi@oracle@@SAXPAX0PBE@Z
??3?$HeapAlloc@VEnvironment@occi@oracle@@@occi@oracle@@SAXPAX0PBE@Z
??3?$HeapAlloc@VMap@occi@oracle@@@occi@oracle@@SAXPAX0PBE@Z
??3?$HeapAlloc@VRefCounted@occi@oracle@@@occi@oracle@@SAXPAX0PBE@Z
??3?$HeapAlloc@VResultSet@occi@oracle@@@occi@oracle@@SAXPAX0PBE@Z
??3?$HeapAlloc@VStatelessConnectionPool@occi@oracle@@@occi@oracle@@SAXPAX0PBE@Z
??3?$HeapAlloc@VStatement@occi@oracle@@@occi@oracle@@SAXPAX0PBE@Z
??3?$HeapAlloc@VStream@occi@oracle@@@occi@oracle@@SAXPAX0PBE@Z
??3@YAXPAX0@Z
??3PObject@occi@oracle@@SAXPAXI@Z
??4Agent@aq@occi@oracle@@QAEXABV0123@@Z
??4AnyData@occi@oracle@@QAEAAV012@ABV012@@Z
??4Bfile@occi@oracle@@QAEAAV012@ABV012@@Z
??4Blob@occi@oracle@@QAEAAV012@ABV012@@Z
??4Bytes@occi@oracle@@QAEXABV012@@Z
??4Clob@occi@oracle@@QAEAAV012@ABV012@@Z
??4Consumer@aq@occi@oracle@@QAEXABV0123@@Z
??4Date@occi@oracle@@QAEAAV012@ABV012@@Z
??4IntervalDS@occi@oracle@@QAEAAV012@ABV012@@Z
??4IntervalYM@occi@oracle@@QAEAAV012@ABV012@@Z
??4Message@aq@occi@oracle@@QAEXABV0123@@Z
??4MetaData@occi@oracle@@QAEXABV012@@Z
??4Number@occi@oracle@@QAEAAV012@ABV012@@Z
??4PObject@occi@oracle@@QAEAAV012@ABV012@@Z
??4Producer@aq@occi@oracle@@QAEXABV0123@@Z
??4RefAny@occi@oracle@@QAEAAV012@ABV012@@Z
??4RefImpl@occi@oracle@@QAEXABV012@@Z
??4SQLException@occi@oracle@@QAEXABV012@@Z
??4Subscription@aq@occi@oracle@@QAEXABV0123@@Z
??4Timestamp@occi@oracle@@QAEAAV012@ABV012@@Z
??8Bfile@occi@oracle@@QBE_NABV012@@Z
??8Blob@occi@oracle@@QBE_NABV012@@Z
??8Clob@occi@oracle@@QBE_NABV012@@Z
??8RefAny@occi@oracle@@QBE_NABV012@@Z
??8RefImpl@occi@oracle@@QBE_NABV012@@Z
??8RefImpl@occi@oracle@@QBE_NABVRefAny@12@@Z
??8occi@oracle@@YA_NABVDate@01@0@Z
??8occi@oracle@@YA_NABVIntervalDS@01@0@Z
??8occi@oracle@@YA_NABVIntervalYM@01@0@Z
??8occi@oracle@@YA_NABVNumber@01@0@Z
??8occi@oracle@@YA_NABVTimestamp@01@0@Z
??9Bfile@occi@oracle@@QBE_NABV012@@Z
??9Blob@occi@oracle@@QBE_NABV012@@Z
??9Clob@occi@oracle@@QBE_NABV012@@Z
??9RefAny@occi@oracle@@QBE_NABV012@@Z
??9occi@oracle@@YA_NABVDate@01@0@Z
??9occi@oracle@@YA_NABVIntervalDS@01@0@Z
??9occi@oracle@@YA_NABVIntervalYM@01@0@Z
??9occi@oracle@@YA_NABVNumber@01@0@Z
??9occi@oracle@@YA_NABVTimestamp@01@0@Z
??BNumber@occi@oracle@@QBECXZ
??BNumber@occi@oracle@@QBEDXZ
??BNumber@occi@oracle@@QBEEXZ
??BNumber@occi@oracle@@QBEFXZ
??BNumber@occi@oracle@@QBEGXZ
??BNumber@occi@oracle@@QBEHXZ
??BNumber@occi@oracle@@QBEIXZ
??BNumber@occi@oracle@@QBEJXZ
??BNumber@occi@oracle@@QBEKXZ
??BNumber@occi@oracle@@QBEMXZ
??BNumber@occi@oracle@@QBENXZ
??BNumber@occi@oracle@@QBEOXZ
??Docci@oracle@@YA?AVNumber@01@ABV201@0@Z
??Docci@oracle@@YA?BVIntervalDS@01@ABV201@ABVNumber@01@@Z
??Docci@oracle@@YA?BVIntervalYM@01@ABV201@ABVNumber@01@@Z
??ENumber@occi@oracle@@QAE?BV012@H@Z
??ENumber@occi@oracle@@QAEAAV012@XZ
??FNumber@occi@oracle@@QAE?BV012@H@Z
??FNumber@occi@oracle@@QAEAAV012@XZ
??GNumber@occi@oracle@@QAE?BV012@XZ
??Gocci@oracle@@YA?AVNumber@01@ABV201@0@Z
??Gocci@oracle@@YA?BVIntervalDS@01@ABV201@0@Z
??Gocci@oracle@@YA?BVIntervalYM@01@ABV201@0@Z
??Hocci@oracle@@YA?AVNumber@01@ABV201@0@Z
??Hocci@oracle@@YA?BVIntervalDS@01@ABV201@0@Z
??Hocci@oracle@@YA?BVIntervalYM@01@ABV201@0@Z
??Kocci@oracle@@YA?AVNumber@01@ABV201@0@Z
??Kocci@oracle@@YA?BVIntervalDS@01@ABV201@ABVNumber@01@@Z
??Kocci@oracle@@YA?BVIntervalYM@01@ABV201@ABVNumber@01@@Z
??Locci@oracle@@YA?AVNumber@01@ABV201@0@Z
??Mocci@oracle@@YA_NABVDate@01@0@Z
??Mocci@oracle@@YA_NABVIntervalDS@01@0@Z
??Mocci@oracle@@YA_NABVIntervalYM@01@0@Z
??Mocci@oracle@@YA_NABVNumber@01@0@Z
??Mocci@oracle@@YA_NABVTimestamp@01@0@Z
??Nocci@oracle@@YA_NABVDate@01@0@Z
??Nocci@oracle@@YA_NABVIntervalDS@01@0@Z
??Nocci@oracle@@YA_NABVIntervalYM@01@0@Z
??Nocci@oracle@@YA_NABVNumber@01@0@Z
??Nocci@oracle@@YA_NABVTimestamp@01@0@Z
??Oocci@oracle@@YA_NABVDate@01@0@Z
??Oocci@oracle@@YA_NABVIntervalDS@01@0@Z
??Oocci@oracle@@YA_NABVIntervalYM@01@0@Z
??Oocci@oracle@@YA_NABVNumber@01@0@Z
??Oocci@oracle@@YA_NABVTimestamp@01@0@Z
??Pocci@oracle@@YA_NABVDate@01@0@Z
??Pocci@oracle@@YA_NABVIntervalDS@01@0@Z
??Pocci@oracle@@YA_NABVIntervalYM@01@0@Z
??Pocci@oracle@@YA_NABVNumber@01@0@Z
??Pocci@oracle@@YA_NABVTimestamp@01@0@Z
??XIntervalDS@occi@oracle@@QAEAAV012@ABVNumber@12@@Z
??XIntervalYM@occi@oracle@@QAEAAV012@ABVNumber@12@@Z
??XNumber@occi@oracle@@QAEAAV012@ABV012@@Z
??YIntervalDS@occi@oracle@@QAEAAV012@ABV012@@Z
??YIntervalYM@occi@oracle@@QAEAAV012@ABV012@@Z
??YNumber@occi@oracle@@QAEAAV012@ABV012@@Z
??ZIntervalDS@occi@oracle@@QAEAAV012@ABV012@@Z
??ZIntervalYM@occi@oracle@@QAEAAV012@ABV012@@Z
??ZNumber@occi@oracle@@QAEAAV012@ABV012@@Z
??_0IntervalDS@occi@oracle@@QAEAAV012@ABVNumber@12@@Z
??_0IntervalYM@occi@oracle@@QAEAAV012@ABVNumber@12@@Z
??_0Number@occi@oracle@@QAEAAV012@ABV012@@Z
??_1Number@occi@oracle@@QAEAAV012@ABV012@@Z
??_7?$HeapAlloc@VConnection@occi@oracle@@@occi@oracle@@6B@
??_7?$HeapAlloc@VConnectionPool@occi@oracle@@@occi@oracle@@6B@
??_7?$HeapAlloc@VEnvironment@occi@oracle@@@occi@oracle@@6B@
??_7?$HeapAlloc@VMap@occi@oracle@@@occi@oracle@@6B@
??_7?$HeapAlloc@VResultSet@occi@oracle@@@occi@oracle@@6B@
??_7?$HeapAlloc@VStatelessConnectionPool@occi@oracle@@@occi@oracle@@6B@
??_7?$HeapAlloc@VStatement@occi@oracle@@@occi@oracle@@6B@
??_7BatchSQLExceptionImpl@occi@oracle@@6B@
??_7ConnectionImpl@occi@oracle@@6B@
??_7ConsumerImpl@aq@occi@oracle@@6B@
??_7MapImpl@occi@oracle@@6B@
??_7MessageImpl@aq@occi@oracle@@6B@
??_7ProducerImpl@aq@occi@oracle@@6B@
??_7ResultSetImpl@occi@oracle@@6B@
??_7StatementImpl@occi@oracle@@6B@
??_G?$HeapAlloc@VConnection@occi@oracle@@@occi@oracle@@UAEPAXI@Z
??_G?$HeapAlloc@VConnectionPool@occi@oracle@@@occi@oracle@@UAEPAXI@Z
??_G?$HeapAlloc@VEnvironment@occi@oracle@@@occi@oracle@@UAEPAXI@Z
??_G?$HeapAlloc@VMap@occi@oracle@@@occi@oracle@@UAEPAXI@Z
??_G?$HeapAlloc@VRefCounted@occi@oracle@@@occi@oracle@@UAEPAXI@Z
??_G?$HeapAlloc@VResultSet@occi@oracle@@@occi@oracle@@UAEPAXI@Z
??_G?$HeapAlloc@VStatelessConnectionPool@occi@oracle@@@occi@oracle@@UAEPAXI@Z
??_G?$HeapAlloc@VStatement@occi@oracle@@@occi@oracle@@UAEPAXI@Z
??_G?$HeapAlloc@VStream@occi@oracle@@@occi@oracle@@UAEPAXI@Z
??_GAgentImpl@aq@occi@oracle@@UAEPAXI@Z
??_GAnyData@occi@oracle@@QAEPAXI@Z
??_GAnyDataImpl@occi@oracle@@UAEPAXI@Z
??_GBatchSQLException@occi@oracle@@UAEPAXI@Z
??_GBatchSQLExceptionImpl@occi@oracle@@UAEPAXI@Z
??_GBytes@occi@oracle@@QAEPAXI@Z
??_GBytesImpl@occi@oracle@@UAEPAXI@Z
??_GConnection@occi@oracle@@UAEPAXI@Z
??_GConnectionImpl@occi@oracle@@UAEPAXI@Z
??_GConnectionPool@occi@oracle@@UAEPAXI@Z
??_GConnectionPoolImpl@occi@oracle@@UAEPAXI@Z
??_GConsumerImpl@aq@occi@oracle@@UAEPAXI@Z
??_GEnvironment@occi@oracle@@UAEPAXI@Z
??_GEnvironmentImpl@occi@oracle@@EAEPAXI@Z
??_GLobStreamImpl@occi@oracle@@UAEPAXI@Z
??_GMap@occi@oracle@@UAEPAXI@Z
??_GMapImpl@occi@oracle@@UAEPAXI@Z
??_GMessageImpl@aq@occi@oracle@@UAEPAXI@Z
??_GMetaDataImpl@occi@oracle@@UAEPAXI@Z
??_GPObject@occi@oracle@@UAEPAXI@Z
??_GProducerImpl@aq@occi@oracle@@UAEPAXI@Z
??_GRefCounted@occi@oracle@@UAEPAXI@Z
??_GResultSet@occi@oracle@@UAEPAXI@Z
??_GResultSetImpl@occi@oracle@@UAEPAXI@Z
??_GRsStreamImpl@occi@oracle@@UAEPAXI@Z
??_GSQLException@occi@oracle@@UAEPAXI@Z
??_GSQLExceptionImpl@occi@oracle@@UAEPAXI@Z
??_GStatelessConnectionPool@occi@oracle@@UAEPAXI@Z
??_GStatelessConnectionPoolImpl@occi@oracle@@UAEPAXI@Z
??_GStatement@occi@oracle@@UAEPAXI@Z
??_GStatementImpl@occi@oracle@@UAEPAXI@Z
??_GStmtStreamImpl@occi@oracle@@UAEPAXI@Z
??_GStream@occi@oracle@@UAEPAXI@Z
??_GSubscriptionImpl@aq@occi@oracle@@UAEPAXI@Z
??_R0?AV?$HeapAlloc@VConnection@occi@oracle@@@occi@oracle@@@8
??_R0?AV?$HeapAlloc@VMap@occi@oracle@@@occi@oracle@@@8
??_R0?AV?$HeapAlloc@VResultSet@occi@oracle@@@occi@oracle@@@8
??_R0?AV?$HeapAlloc@VStatement@occi@oracle@@@occi@oracle@@@8
??_R0?AVBatchSQLExceptionImpl@occi@oracle@@@8
??_R0?AVConnectionImpl@occi@oracle@@@8
??_R0?AVConsumerImpl@aq@occi@oracle@@@8
??_R0?AVMapImpl@occi@oracle@@@8
??_R0?AVMessageImpl@aq@occi@oracle@@@8
??_R0?AVProducerImpl@aq@occi@oracle@@@8
??_R0?AVResultSetImpl@occi@oracle@@@8
??_R0?AVStatementImpl@occi@oracle@@@8
??_R2?$HeapAlloc@VConnection@occi@oracle@@@occi@oracle@@8
??_R2?$HeapAlloc@VConnectionPool@occi@oracle@@@occi@oracle@@8
??_R2?$HeapAlloc@VEnvironment@occi@oracle@@@occi@oracle@@8
??_R2?$HeapAlloc@VMap@occi@oracle@@@occi@oracle@@8
??_R2?$HeapAlloc@VRefCounted@occi@oracle@@@occi@oracle@@8
??_R2?$HeapAlloc@VResultSet@occi@oracle@@@occi@oracle@@8
??_R2?$HeapAlloc@VStatelessConnectionPool@occi@oracle@@@occi@oracle@@8
??_R2?$HeapAlloc@VStatement@occi@oracle@@@occi@oracle@@8
??_R2?$HeapAlloc@VStream@occi@oracle@@@occi@oracle@@8
??_R2AgentImpl@aq@occi@oracle@@8
??_R2AnyDataImpl@occi@oracle@@8
??_R2BatchSQLException@occi@oracle@@8
??_R2BatchSQLExceptionImpl@occi@oracle@@8
??_R2BytesImpl@occi@oracle@@8
??_R2Connection@occi@oracle@@8
??_R2ConnectionImpl@occi@oracle@@8
??_R2ConnectionPool@occi@oracle@@8
??_R2ConnectionPoolImpl@occi@oracle@@8
??_R2ConsumerImpl@aq@occi@oracle@@8
??_R2Environment@occi@oracle@@8
??_R2EnvironmentImpl@occi@oracle@@8
??_R2LobStreamImpl@occi@oracle@@8
??_R2Map@occi@oracle@@8
??_R2MapImpl@occi@oracle@@8
??_R2MessageImpl@aq@occi@oracle@@8
??_R2MetaDataImpl@occi@oracle@@8
??_R2PObject@occi@oracle@@8
??_R2ProducerImpl@aq@occi@oracle@@8
??_R2RefCounted@occi@oracle@@8
??_R2ResultSet@occi@oracle@@8
??_R2ResultSetImpl@occi@oracle@@8
??_R2RsStreamImpl@occi@oracle@@8
??_R2SQLException@occi@oracle@@8
??_R2SQLExceptionImpl@occi@oracle@@8
??_R2StatelessConnectionPool@occi@oracle@@8
??_R2StatelessConnectionPoolImpl@occi@oracle@@8
??_R2Statement@occi@oracle@@8
??_R2StatementImpl@occi@oracle@@8
??_R2StmtStreamImpl@occi@oracle@@8
??_R2Stream@occi@oracle@@8
??_R2SubscriptionImpl@aq@occi@oracle@@8
??_R3?$HeapAlloc@VConnection@occi@oracle@@@occi@oracle@@8
??_R3?$HeapAlloc@VConnectionPool@occi@oracle@@@occi@oracle@@8
??_R3?$HeapAlloc@VEnvironment@occi@oracle@@@occi@oracle@@8
??_R3?$HeapAlloc@VMap@occi@oracle@@@occi@oracle@@8
??_R3?$HeapAlloc@VRefCounted@occi@oracle@@@occi@oracle@@8
??_R3?$HeapAlloc@VResultSet@occi@oracle@@@occi@oracle@@8
??_R3?$HeapAlloc@VStatelessConnectionPool@occi@oracle@@@occi@oracle@@8
??_R3?$HeapAlloc@VStatement@occi@oracle@@@occi@oracle@@8
??_R3?$HeapAlloc@VStream@occi@oracle@@@occi@oracle@@8
??_R3AgentImpl@aq@occi@oracle@@8
??_R3AnyDataImpl@occi@oracle@@8
??_R3BatchSQLException@occi@oracle@@8
??_R3BatchSQLExceptionImpl@occi@oracle@@8
??_R3BytesImpl@occi@oracle@@8
??_R3Connection@occi@oracle@@8
??_R3ConnectionImpl@occi@oracle@@8
??_R3ConnectionPool@occi@oracle@@8
??_R3ConnectionPoolImpl@occi@oracle@@8
??_R3ConsumerImpl@aq@occi@oracle@@8
??_R3Environment@occi@oracle@@8
??_R3EnvironmentImpl@occi@oracle@@8
??_R3LobStreamImpl@occi@oracle@@8
??_R3Map@occi@oracle@@8
??_R3MapImpl@occi@oracle@@8
??_R3MessageImpl@aq@occi@oracle@@8
??_R3MetaDataImpl@occi@oracle@@8
??_R3PObject@occi@oracle@@8
??_R3ProducerImpl@aq@occi@oracle@@8
??_R3RefCounted@occi@oracle@@8
??_R3ResultSet@occi@oracle@@8
??_R3ResultSetImpl@occi@oracle@@8
??_R3RsStreamImpl@occi@oracle@@8
??_R3SQLException@occi@oracle@@8
??_R3SQLExceptionImpl@occi@oracle@@8
??_R3StatelessConnectionPool@occi@oracle@@8
??_R3StatelessConnectionPoolImpl@occi@oracle@@8
??_R3Statement@occi@oracle@@8
??_R3StatementImpl@occi@oracle@@8
??_R3StmtStreamImpl@occi@oracle@@8
??_R3Stream@occi@oracle@@8
??_R3SubscriptionImpl@aq@occi@oracle@@8
??_R4?$HeapAlloc@VConnection@occi@oracle@@@occi@oracle@@6B@
??_R4?$HeapAlloc@VConnectionPool@occi@oracle@@@occi@oracle@@6B@
??_R4?$HeapAlloc@VEnvironment@occi@oracle@@@occi@oracle@@6B@
??_R4?$HeapAlloc@VMap@occi@oracle@@@occi@oracle@@6B@
??_R4?$HeapAlloc@VRefCounted@occi@oracle@@@occi@oracle@@6B@
??_R4?$HeapAlloc@VResultSet@occi@oracle@@@occi@oracle@@6B@
??_R4?$HeapAlloc@VStatelessConnectionPool@occi@oracle@@@occi@oracle@@6B@
??_R4?$HeapAlloc@VStatement@occi@oracle@@@occi@oracle@@6B@
??_R4?$HeapAlloc@VStream@occi@oracle@@@occi@oracle@@6B@
??_R4AgentImpl@aq@occi@oracle@@6B@
??_R4AnyDataImpl@occi@oracle@@6B@
??_R4BatchSQLException@occi@oracle@@6B@
??_R4BatchSQLExceptionImpl@occi@oracle@@6B@
??_R4BytesImpl@occi@oracle@@6B@
??_R4Connection@occi@oracle@@6B@
??_R4ConnectionImpl@occi@oracle@@6B@
??_R4ConnectionPool@occi@oracle@@6B@
??_R4ConnectionPoolImpl@occi@oracle@@6B@
??_R4ConsumerImpl@aq@occi@oracle@@6B@
??_R4Environment@occi@oracle@@6B@
??_R4EnvironmentImpl@occi@oracle@@6B@
??_R4LobStreamImpl@occi@oracle@@6B@
??_R4Map@occi@oracle@@6B@
??_R4MapImpl@occi@oracle@@6B@
??_R4MessageImpl@aq@occi@oracle@@6B@
??_R4MetaDataImpl@occi@oracle@@6B@
??_R4PObject@occi@oracle@@6B@
??_R4ProducerImpl@aq@occi@oracle@@6B@
??_R4RefCounted@occi@oracle@@6B@
??_R4ResultSet@occi@oracle@@6B@
??_R4ResultSetImpl@occi@oracle@@6B@
??_R4RsStreamImpl@occi@oracle@@6B@
??_R4SQLException@occi@oracle@@6B@
??_R4SQLExceptionImpl@occi@oracle@@6B@
??_R4StatelessConnectionPool@occi@oracle@@6B@
??_R4StatelessConnectionPoolImpl@occi@oracle@@6B@
??_R4Statement@occi@oracle@@6B@
??_R4StatementImpl@occi@oracle@@6B@
??_R4StmtStreamImpl@occi@oracle@@6B@
??_R4Stream@occi@oracle@@6B@
??_R4SubscriptionImpl@aq@occi@oracle@@6B@
?BatchSQLExceptionCreate@occi@oracle@@YA?AVBatchSQLException@12@PAX@Z
?ConvertFromUTF8ToUTF16@occi@oracle@@YA?AV?$basic_string@GU?$char_traits@G@std@@V?$allocator@G@2@@std@@ABV?$basic_string@DU?$char_traits@D@std@@V?$allocator@D@2@@4@@Z
?DateErrorCheck@occi@oracle@@YAXPAUldxx@@H@Z
?ErrorCheck@occi@oracle@@YAXHPAUOCIError@@@Z
?ErrorCheckEnv@occi@oracle@@YAXHPAUOCIEnv@@@Z
?ErrorDiscard@occi@oracle@@YAXHPAUOCIError@@@Z
?ErrorDiscardEnv@occi@oracle@@YAXHPAUOCIEnv@@@Z
?OCCIErrorGet@occi@oracle@@YAHPAXIPAEPAH1II@Z
?OCCISubscriptionNotify@SubscriptionImpl@aq@occi@oracle@@SAIPAXPAUOCISubscription@@0I0I@Z
?OCCITafCb@ConnectionImpl@occi@oracle@@CAHPAX00II@Z
?SQLExceptionCreate@occi@oracle@@YA?AVSQLException@12@H@Z
?SQLExceptionCreate@occi@oracle@@YA?AVSQLException@12@PAXH@Z
?_Destroy@?$vector@V?$basic_string@DU?$char_traits@D@std@@V?$allocator@D@2@@std@@V?$allocator@V?$basic_string@DU?$char_traits@D@std@@V?$allocator@D@2@@std@@@2@@std@@IAEXPAV?$basic_string@DU?$char_traits@D@std@@V?$allocator@D@2@@2@0@Z
?abs@Number@occi@oracle@@QBE?BV123@XZ
?addDays@Date@occi@oracle@@QBE?AV123@H@Z
?addIteration@StatementImpl@occi@oracle@@UAEXXZ
?addMonths@Date@occi@oracle@@QBE?AV123@H@Z
?allocBindVars@StatementImpl@occi@oracle@@AAEXXZ
?allocDefineBuffer@ResultSetImpl@occi@oracle@@AAEXIPAUDefine@123@PAUOCIError@@@Z
?allocDefineDataBuffer@ResultSetImpl@occi@oracle@@AAEXIPAUDefine@123@PAUOCIError@@@Z
?allocDefineVars@ResultSetImpl@occi@oracle@@AAEXXZ
?allocMemForBufPtr@StatementImpl@occi@oracle@@AAEXPAUBind@123@PAUOCIEnv@@W4Type@23@PAUOCIType@@@Z
?allocateDataMembers@IntervalDS@occi@oracle@@AAEXPAUOCIEnv@@@Z
?allocateDataMembers@IntervalYM@occi@oracle@@AAEXPAUOCIEnv@@@Z
?append@Blob@occi@oracle@@QAEXABV123@@Z
?append@Clob@occi@oracle@@QAEXABV123@@Z
?arcCos@Number@occi@oracle@@QBE?BV123@XZ
?arcSin@Number@occi@oracle@@QBE?BV123@XZ
?arcTan2@Number@occi@oracle@@QBE?BV123@ABV123@@Z
?arcTan@Number@occi@oracle@@QBE?BV123@XZ
?assignObj@RefImpl@occi@oracle@@QAEXPAVPObject@23@@Z
?assignRefAny@RefImpl@occi@oracle@@QAEXABVRefAny@23@@Z
?bind@StatementImpl@occi@oracle@@AAEXPAUBind@123@IIGPAUOCIType@@@Z
?byteAt@Bytes@occi@oracle@@QBEEI@Z
?byteAt@BytesImpl@occi@oracle@@QBEEI@Z
?cacheTDO@MapImpl@occi@oracle@@QAEXPBVConnectionImpl@23@ABUSchemaType@23@PAUOCIType@@@Z
?cacheTable@MapImpl@occi@oracle@@QAEXPBVConnectionImpl@23@PBXI1IPAX@Z
?cancel@ResultSetImpl@occi@oracle@@UAEXXZ
?ceil@Number@occi@oracle@@QBE?BV123@XZ
?changePassword@ConnectionImpl@occi@oracle@@UAEXABV?$basic_string@DU?$char_traits@D@std@@V?$allocator@D@2@@std@@00@Z
?changePassword@ConnectionImpl@occi@oracle@@UAEXABV?$basic_string@GU?$char_traits@G@std@@V?$allocator@G@2@@std@@00@Z
?checkNullAndTrunc@ResultSetImpl@occi@oracle@@ABEXPAUDefine@123@@Z
?checkNullAndTrunc@StatementImpl@occi@oracle@@ABEXPAUBind@123@@Z
?cleanup@MessageImpl@aq@occi@oracle@@AAEXXZ
?clear@?$list@PAXV?$allocator@PAX@std@@@std@@QAEXXZ
?clear@RefAny@occi@oracle@@QAEXXZ
?clear@RefImpl@occi@oracle@@QAEXXZ
?clearParamVec@StatementImpl@occi@oracle@@QAEXXZ
?close@Bfile@occi@oracle@@QAEXXZ
?close@Blob@occi@oracle@@QAEXXZ
?close@Clob@occi@oracle@@QAEXXZ
?closeResultSet@StatementImpl@occi@oracle@@UAEXPAVResultSet@23@@Z
?closeStream@Bfile@occi@oracle@@QAEXPAVStream@23@@Z
?closeStream@Blob@occi@oracle@@QAEXPAVStream@23@@Z
?closeStream@Clob@occi@oracle@@QAEXPAVStream@23@@Z
?closeStream@ResultSetImpl@occi@oracle@@UAEXPAVStream@23@@Z
?closeStream@StatementImpl@occi@oracle@@UAEXPAVStream@23@@Z
?commit@ConnectionImpl@occi@oracle@@UAEXXZ
?concat@MapImpl@occi@oracle@@ABEXPAX0I0I0PAIPBE@Z
?constructHourAndMinute@Date@occi@oracle@@ABEXAAH00@Z
?copy@Blob@occi@oracle@@QAEXABV123@III@Z
?copy@Blob@occi@oracle@@QAEXABVBfile@23@III@Z
?copy@Clob@occi@oracle@@QAEXABV123@III@Z
?copy@Clob@occi@oracle@@QAEXABVBfile@23@III@Z
?cos@Number@occi@oracle@@QBE?BV123@XZ
?createConnection@ConnectionPoolImpl@occi@oracle@@UAEPAVConnection@23@ABV?$basic_string@DU?$char_traits@D@std@@V?$allocator@D@2@@std@@0@Z
?createConnection@ConnectionPoolImpl@occi@oracle@@UAEPAVConnection@23@ABV?$basic_string@GU?$char_traits@G@std@@V?$allocator@G@2@@std@@0@Z
?createConnection@EnvironmentImpl@occi@oracle@@UAEPAVConnection@23@ABV?$basic_string@DU?$char_traits@D@std@@V?$allocator@D@2@@std@@00@Z
?createConnection@EnvironmentImpl@occi@oracle@@UAEPAVConnection@23@ABV?$basic_string@GU?$char_traits@G@std@@V?$allocator@G@2@@std@@00@Z
?createConnectionPool@EnvironmentImpl@occi@oracle@@UAEPAVConnectionPool@23@ABV?$basic_string@DU?$char_traits@D@std@@V?$allocator@D@2@@std@@00III@Z
?createConnectionPool@EnvironmentImpl@occi@oracle@@UAEPAVConnectionPool@23@ABV?$basic_string@GU?$char_traits@G@std@@V?$allocator@G@2@@std@@00III@Z
?createEnvironment@Environment@occi@oracle@@SAPAV123@ABV?$basic_string@DU?$char_traits@D@std@@V?$allocator@D@2@@std@@0W4Mode@123@PAXP6APAX2I@ZP6APAX22I@ZP6AX22@Z@Z
?createEnvironment@Environment@occi@oracle@@SAPAV123@W4Mode@123@PAXP6APAX1I@ZP6APAX11I@ZP6AX11@Z@Z
?createProxyConnection@ConnectionPoolImpl@occi@oracle@@UAEPAVConnection@23@ABV?$basic_string@DU?$char_traits@D@std@@V?$allocator@D@2@@std@@QAV56@IW4ProxyType@423@@Z
?createProxyConnection@ConnectionPoolImpl@occi@oracle@@UAEPAVConnection@23@ABV?$basic_string@DU?$char_traits@D@std@@V?$allocator@D@2@@std@@W4ProxyType@423@@Z
?createProxyConnection@ConnectionPoolImpl@occi@oracle@@UAEPAVConnection@23@ABV?$basic_string@GU?$char_traits@G@std@@V?$allocator@G@2@@std@@QAV?$basic_string@DU?$char_traits@D@std@@V?$allocator@D@2@@6@IW4ProxyType@423@@Z
?createProxyConnection@ConnectionPoolImpl@occi@oracle@@UAEPAVConnection@23@ABV?$basic_string@GU?$char_traits@G@std@@V?$allocator@G@2@@std@@W4ProxyType@423@@Z
?createStatelessConnectionPool@EnvironmentImpl@occi@oracle@@UAEPAVStatelessConnectionPool@23@ABV?$basic_string@DU?$char_traits@D@std@@V?$allocator@D@2@@std@@00IIIW4PoolType@423@@Z
?createStatelessConnectionPool@EnvironmentImpl@occi@oracle@@UAEPAVStatelessConnectionPool@23@ABV?$basic_string@GU?$char_traits@G@std@@V?$allocator@G@2@@std@@00IIIW4PoolType@423@@Z
?createStatement@ConnectionImpl@occi@oracle@@UAEPAVStatement@23@ABV?$basic_string@DU?$char_traits@D@std@@V?$allocator@D@2@@std@@0@Z
?createStatement@ConnectionImpl@occi@oracle@@UAEPAVStatement@23@ABV?$basic_string@DU?$char_traits@D@std@@V?$allocator@D@2@@std@@@Z
?createStatement@ConnectionImpl@occi@oracle@@UAEPAVStatement@23@ABV?$basic_string@GU?$char_traits@G@std@@V?$allocator@G@2@@std@@0@Z
?createStatement@ConnectionImpl@occi@oracle@@UAEPAVStatement@23@ABV?$basic_string@GU?$char_traits@G@std@@V?$allocator@G@2@@std@@@Z
?daysBetween@Date@occi@oracle@@QBE?AVIntervalDS@23@ABV123@@Z
?defineConvertBDouble@ResultSetImpl@occi@oracle@@AAEXPAUDefine@123@PANPAIH@Z
?defineConvertBFloat@ResultSetImpl@occi@oracle@@AAEXPAUDefine@123@PAMPAIH@Z
?defineConvertChr@ResultSetImpl@occi@oracle@@AAEXPAUDefine@123@PADGPAPADPAIH@Z
?defineConvertDate@ResultSetImpl@occi@oracle@@AAEXPAUDefine@123@PAEIPAIH@Z
?defineConvertIntervalDS@ResultSetImpl@occi@oracle@@AAEXPAUDefine@123@PAUOCIInterval@@IPAIH@Z
?defineConvertIntervalYM@ResultSetImpl@occi@oracle@@AAEXPAUDefine@123@PAUOCIInterval@@IPAIH@Z
?defineConvertNum@ResultSetImpl@occi@oracle@@AAEXPAUDefine@123@PAEIPAIH@Z
?defineConvertTimestamp@ResultSetImpl@occi@oracle@@AAEXPAUDefine@123@PAULdiDateTime@@IPAIH@Z
?deleteRef@RefCounted@occi@oracle@@QBEXXZ
?destroy@ConnectionImpl@occi@oracle@@QAEXIABV?$basic_string@DU?$char_traits@D@std@@V?$allocator@D@2@@std@@@Z
?destroy@ConnectionImpl@occi@oracle@@QAEXIABV?$basic_string@GU?$char_traits@G@std@@V?$allocator@G@2@@std@@@Z
?destroy@ConnectionPoolImpl@occi@oracle@@QAEXXZ
?destroy@PObject@occi@oracle@@SAXPAX@Z
?destroy@StatelessConnectionPoolImpl@occi@oracle@@QAEXW4DestroyMode@StatelessConnectionPool@23@@Z
?destroy@StatementImpl@occi@oracle@@QAEXABV?$basic_string@DU?$char_traits@D@std@@V?$allocator@D@2@@std@@@Z
?destroy@StatementImpl@occi@oracle@@QAEXABV?$basic_string@GU?$char_traits@G@std@@V?$allocator@G@2@@std@@@Z
?disableCaching@StatementImpl@occi@oracle@@UAEXXZ
?disableSubscription@EnvironmentImpl@occi@oracle@@UAEXABVSubscription@aq@23@@Z
?doOCIBind@StatementImpl@occi@oracle@@AAEXPAUBind@123@IPAXGIPAIHPAGPAF3PAUOCIType@@@Z
?doOCIDefine@ResultSetImpl@occi@oracle@@AAEXIPAXHGPAF0PAGIPAUOCIType@@@Z
?doOCIExecute@StatementImpl@occi@oracle@@AAEXXZ
?do_IsCached@ConnectionImpl@occi@oracle@@AAE_NPAXI0I@Z
?do_destroy@ConnectionImpl@occi@oracle@@AAEXIPAXI@Z
?do_destroy@StatementImpl@occi@oracle@@AAEXPAXI@Z
?do_execute@StatementImpl@occi@oracle@@AAE?AW4Status@Statement@23@XZ
?do_getDirAlias@Bfile@occi@oracle@@ABEXPAXPAG@Z
?do_getFileName@Bfile@occi@oracle@@ABEXPAXPAG@Z
?do_put@MapImpl@occi@oracle@@AAEXPAXI0IP6APAX0@ZP6AX00@Z@Z
?do_read@Clob@occi@oracle@@ABEIIPAXII@Z
?do_registerOutParam@StatementImpl@occi@oracle@@AAEXIW4Type@23@IPAXI1I@Z
?do_setName@Bfile@occi@oracle@@AAEXPAXG0G@Z
?do_setNull@StatementImpl@occi@oracle@@AAEXIW4Type@23@PAXI1I@Z
?do_setPrefetch@RefImpl@occi@oracle@@AAEXPAXI0II@Z
?do_setRefWithType@StatementImpl@occi@oracle@@AAEXIABVRefAny@23@PAXI1I@Z
?do_setSQL@StatementImpl@occi@oracle@@AAEXPAXI0I@Z
?do_setString@AnyDataImpl@occi@oracle@@AAEXPAXI@Z
?do_setVectorOfBDouble@occi@oracle@@YAXPAVStatement@12@IABV?$vector@UBDouble@occi@oracle@@V?$allocator@UBDouble@occi@oracle@@@std@@@std@@PAXI2I@Z
?do_setVectorOfBFloat@occi@oracle@@YAXPAVStatement@12@IABV?$vector@UBFloat@occi@oracle@@V?$allocator@UBFloat@occi@oracle@@@std@@@std@@PAXI2I@Z
?do_setVectorOfBfile@occi@oracle@@YAXPAVStatement@12@IABV?$vector@VBfile@occi@oracle@@V?$allocator@VBfile@occi@oracle@@@std@@@std@@PAXI2I@Z
?do_setVectorOfBlob@occi@oracle@@YAXPAVStatement@12@IABV?$vector@VBlob@occi@oracle@@V?$allocator@VBlob@occi@oracle@@@std@@@std@@PAXI2I@Z
?do_setVectorOfClob@occi@oracle@@YAXPAVStatement@12@IABV?$vector@VClob@occi@oracle@@V?$allocator@VClob@occi@oracle@@@std@@@std@@PAXI2I@Z
?do_setVectorOfDate@occi@oracle@@YAXPAVStatement@12@IABV?$vector@VDate@occi@oracle@@V?$allocator@VDate@occi@oracle@@@std@@@std@@PAXI2I@Z
?do_setVectorOfDouble@occi@oracle@@YAXPAVStatement@12@IABV?$vector@NV?$allocator@N@std@@@std@@PAXI2I@Z
?do_setVectorOfFloat@occi@oracle@@YAXPAVStatement@12@IABV?$vector@MV?$allocator@M@std@@@std@@PAXI2I@Z
?do_setVectorOfInt@occi@oracle@@YAXPAVStatement@12@IABV?$vector@HV?$allocator@H@std@@@std@@PAXI2I@Z
?do_setVectorOfIntervalDS@occi@oracle@@YAXPAVStatement@12@IABV?$vector@VIntervalDS@occi@oracle@@V?$allocator@VIntervalDS@occi@oracle@@@std@@@std@@PAXI2I@Z
?do_setVectorOfIntervalYM@occi@oracle@@YAXPAVStatement@12@IABV?$vector@VIntervalYM@occi@oracle@@V?$allocator@VIntervalYM@occi@oracle@@@std@@@std@@PAXI2I@Z
?do_setVectorOfNumber@occi@oracle@@YAXPAVStatement@12@IABV?$vector@VNumber@occi@oracle@@V?$allocator@VNumber@occi@oracle@@@std@@@std@@PAXI2I@Z
?do_setVectorOfOCIRefs@occi@oracle@@YAXPAVStatement@12@IABV?$vector@PAXV?$allocator@PAX@std@@@std@@ABV?$vector@FV?$allocator@F@std@@@5@PAXI3I@Z
?do_setVectorOfPObjects@occi@oracle@@YAXPAVStatement@12@IABV?$vector@PAVPObject@occi@oracle@@V?$allocator@PAVPObject@occi@oracle@@@std@@@std@@PAXI2I@Z
?do_setVectorOfRefAny@occi@oracle@@YAXPAVStatement@12@IABV?$vector@VRefAny@occi@oracle@@V?$allocator@VRefAny@occi@oracle@@@std@@@std@@PAXI2I@Z
?do_setVectorOfTimestamp@occi@oracle@@YAXPAVStatement@12@IABV?$vector@VTimestamp@occi@oracle@@V?$allocator@VTimestamp@occi@oracle@@@std@@@std@@PAXI2I@Z
?do_setVectorOfUInt@occi@oracle@@YAXPAVStatement@12@IABV?$vector@IV?$allocator@I@std@@@std@@PAXI2I@Z
?do_write@Clob@occi@oracle@@AAEIIPAXII@Z
?do_writeChunk@Clob@occi@oracle@@AAEIIPAXII@Z
?enableSubscription@EnvironmentImpl@occi@oracle@@UAEXABVSubscription@aq@23@@Z
?execute@StatementImpl@occi@oracle@@UAE?AW4Status@Statement@23@ABV?$basic_string@DU?$char_traits@D@std@@V?$allocator@D@2@@std@@@Z
?execute@StatementImpl@occi@oracle@@UAE?AW4Status@Statement@23@ABV?$basic_string@GU?$char_traits@G@std@@V?$allocator@G@2@@std@@@Z
?executeArrayUpdate@StatementImpl@occi@oracle@@UAE?AW4Status@Statement@23@I@Z
?executeQuery@StatementImpl@occi@oracle@@UAEPAVResultSet@23@ABV?$basic_string@DU?$char_traits@D@std@@V?$allocator@D@2@@std@@@Z
?executeQuery@StatementImpl@occi@oracle@@UAEPAVResultSet@23@ABV?$basic_string@GU?$char_traits@G@std@@V?$allocator@G@2@@std@@@Z
?executeUpdate@StatementImpl@occi@oracle@@UAEIABV?$basic_string@DU?$char_traits@D@std@@V?$allocator@D@2@@std@@@Z
?executeUpdate@StatementImpl@occi@oracle@@UAEIABV?$basic_string@GU?$char_traits@G@std@@V?$allocator@G@2@@std@@@Z
?exp@Number@occi@oracle@@QBE?BV123@XZ
?fileExists@Bfile@occi@oracle@@QBE_NXZ
?floor@Number@occi@oracle@@QBE?BV123@XZ
?flush@PObject@occi@oracle@@QAEXXZ
?flushCache@ConnectionImpl@occi@oracle@@UAEXXZ
?freeBindBuffers@StatementImpl@occi@oracle@@AAEXPAUBind@123@@Z
?freeBindBuffersAndVars@StatementImpl@occi@oracle@@AAEXXZ
?freeDefineBuffersAndVars@ResultSetImpl@occi@oracle@@AAEXXZ
?fromBytes@Date@occi@oracle@@QAEXABVBytes@23@PBVEnvironment@23@@Z
?fromBytes@Number@occi@oracle@@QAEXABVBytes@23@@Z
?fromText@Date@occi@oracle@@QAEXABV?$basic_string@DU?$char_traits@D@std@@V?$allocator@D@2@@std@@00PBVEnvironment@23@@Z
?fromText@Date@occi@oracle@@QAEXABV?$basic_string@GU?$char_traits@G@std@@V?$allocator@G@2@@std@@00PBVEnvironment@23@@Z
?fromText@IntervalDS@occi@oracle@@QAEXABV?$basic_string@DU?$char_traits@D@std@@V?$allocator@D@2@@std@@0PBVEnvironment@23@@Z
?fromText@IntervalYM@occi@oracle@@QAEXABV?$basic_string@DU?$char_traits@D@std@@V?$allocator@D@2@@std@@0PBVEnvironment@23@@Z
?fromText@Number@occi@oracle@@QAEXPBVEnvironment@23@ABV?$basic_string@DU?$char_traits@D@std@@V?$allocator@D@2@@std@@11@Z
?fromText@Number@occi@oracle@@QAEXPBVEnvironment@23@ABV?$basic_string@GU?$char_traits@G@std@@V?$allocator@G@2@@std@@11@Z
?fromText@Timestamp@occi@oracle@@QAEXABV?$basic_string@DU?$char_traits@D@std@@V?$allocator@D@2@@std@@00PBVEnvironment@23@@Z
?fromText@Timestamp@occi@oracle@@QAEXABV?$basic_string@GU?$char_traits@G@std@@V?$allocator@G@2@@std@@00PBVEnvironment@23@@Z
?fromUText@IntervalDS@occi@oracle@@QAEXABV?$basic_string@GU?$char_traits@G@std@@V?$allocator@G@2@@std@@PBVEnvironment@23@@Z
?fromUText@IntervalYM@occi@oracle@@QAEXABV?$basic_string@GU?$char_traits@G@std@@V?$allocator@G@2@@std@@PBVEnvironment@23@@Z
?getAddress@Agent@aq@occi@oracle@@QBE?AV?$basic_string@DU?$char_traits@D@std@@V?$allocator@D@2@@std@@XZ
?getAddress@AgentImpl@aq@occi@oracle@@QBE?AV?$basic_string@DU?$char_traits@D@std@@V?$allocator@D@2@@std@@XZ
?getAgentList@Listener@aq@occi@oracle@@QBE?AV?$vector@VAgent@aq@occi@oracle@@V?$allocator@VAgent@aq@occi@oracle@@@std@@@std@@XZ
?getAnyData@Message@aq@occi@oracle@@QBE?AVAnyData@34@XZ
?getAnyData@MessageImpl@aq@occi@oracle@@QBE?AVAnyData@34@XZ
?getAnyTaggedConnection@StatelessConnectionPoolImpl@occi@oracle@@UAEPAVConnection@23@ABV?$basic_string@DU?$char_traits@D@std@@V?$allocator@D@2@@std@@00@Z
?getAnyTaggedConnection@StatelessConnectionPoolImpl@occi@oracle@@UAEPAVConnection@23@ABV?$basic_string@DU?$char_traits@D@std@@V?$allocator@D@2@@std@@@Z
?getAnyTaggedConnection@StatelessConnectionPoolImpl@occi@oracle@@UAEPAVConnection@23@ABV?$basic_string@GU?$char_traits@G@std@@V?$allocator@G@2@@std@@00@Z
?getAnyTaggedConnection@StatelessConnectionPoolImpl@occi@oracle@@UAEPAVConnection@23@ABV?$basic_string@GU?$char_traits@G@std@@V?$allocator@G@2@@std@@@Z
?getAnyTaggedProxyConnection@StatelessConnectionPoolImpl@occi@oracle@@UAEPAVConnection@23@ABV?$basic_string@DU?$char_traits@D@std@@V?$allocator@D@2@@std@@0W4ProxyType@423@@Z
?getAnyTaggedProxyConnection@StatelessConnectionPoolImpl@occi@oracle@@UAEPAVConnection@23@ABV?$basic_string@DU?$char_traits@D@std@@V?$allocator@D@2@@std@@QAV56@I0W4ProxyType@423@@Z
?getAnyTaggedProxyConnection@StatelessConnectionPoolImpl@occi@oracle@@UAEPAVConnection@23@ABV?$basic_string@GU?$char_traits@G@std@@V?$allocator@G@2@@std@@0W4ProxyType@423@@Z
?getAnyTaggedProxyConnection@StatelessConnectionPoolImpl@occi@oracle@@UAEPAVConnection@23@ABV?$basic_string@GU?$char_traits@G@std@@V?$allocator@G@2@@std@@QAV?$basic_string@DU?$char_traits@D@std@@V?$allocator@D@2@@6@I0W4ProxyType@423@@Z
?getArrayPtr@BytesImpl@occi@oracle@@QBEPAEXZ
?getAsBDouble@AnyData@occi@oracle@@QBE?AUBDouble@23@XZ
?getAsBDouble@AnyDataImpl@occi@oracle@@QBE?AUBDouble@23@XZ
?getAsBFloat@AnyData@occi@oracle@@QBE?AUBFloat@23@XZ
?getAsBFloat@AnyDataImpl@occi@oracle@@QBE?AUBFloat@23@XZ
?getAsBfile@AnyData@occi@oracle@@QBE?AVBfile@23@XZ
?getAsBfile@AnyDataImpl@occi@oracle@@QBE?AVBfile@23@XZ
?getAsBytes@AnyData@occi@oracle@@QBE?AVBytes@23@XZ
?getAsBytes@AnyDataImpl@occi@oracle@@QBE?AVBytes@23@XZ
?getAsDate@AnyData@occi@oracle@@QBE?AVDate@23@XZ
?getAsDate@AnyDataImpl@occi@oracle@@QBE?AVDate@23@XZ
?getAsIntervalDS@AnyData@occi@oracle@@QBE?AVIntervalDS@23@XZ
?getAsIntervalDS@AnyDataImpl@occi@oracle@@QBE?AVIntervalDS@23@XZ
?getAsIntervalYM@AnyData@occi@oracle@@QBE?AVIntervalYM@23@XZ
?getAsIntervalYM@AnyDataImpl@occi@oracle@@QBE?AVIntervalYM@23@XZ
?getAsNumber@AnyData@occi@oracle@@QBE?AVNumber@23@XZ
?getAsNumber@AnyDataImpl@occi@oracle@@QBE?AVNumber@23@XZ
?getAsObject@AnyData@occi@oracle@@QBEPAVPObject@23@XZ
?getAsObject@AnyDataImpl@occi@oracle@@QBEPAVPObject@23@XZ
?getAsRef@AnyData@occi@oracle@@QBE?AVRefAny@23@XZ
?getAsRef@AnyDataImpl@occi@oracle@@QBE?AVRefAny@23@XZ
?getAsString@AnyData@occi@oracle@@QBE?AV?$basic_string@DU?$char_traits@D@std@@V?$allocator@D@2@@std@@XZ
?getAsString@AnyDataImpl@occi@oracle@@QBE?AV?$basic_string@DU?$char_traits@D@std@@V?$allocator@D@2@@std@@XZ
?getAsTimestamp@AnyData@occi@oracle@@QBE?AVTimestamp@23@XZ
?getAsTimestamp@AnyDataImpl@occi@oracle@@QBE?AVTimestamp@23@XZ
?getAttemptsToDequeue@Message@aq@occi@oracle@@QBEHXZ
?getAttemptsToDequeue@MessageImpl@aq@occi@oracle@@QBEHXZ
?getAttrCount@MetaData@occi@oracle@@ABE?AW4AttrCount@123@E@Z
?getAttrIdArrayAddr@MetaData@occi@oracle@@ABEPBW4AttrId@123@E@Z
?getAttrTypeArrayAddr@MetaData@occi@oracle@@ABEPBW4ociAttrType@123@E@Z
?getAttributeCount@MetaData@occi@oracle@@QBEIXZ
?getAttributeId@MetaData@occi@oracle@@QBE?AW4AttrId@123@I@Z
?getAttributeType@MetaData@occi@oracle@@QBE?AW4Type@23@I@Z
?getAutoCommit@StatementImpl@occi@oracle@@UBE_NXZ
?getBDouble@AnyData@occi@oracle@@QBE?AUBDouble@23@XZ
?getBDouble@AnyDataImpl@occi@oracle@@QBE?AUBDouble@23@XZ
?getBDouble@ResultSetImpl@occi@oracle@@UAE?AUBDouble@23@I@Z
?getBDouble@StatementImpl@occi@oracle@@UAE?AUBDouble@23@I@Z
?getBFloat@AnyData@occi@oracle@@QBE?AUBFloat@23@XZ
?getBFloat@AnyDataImpl@occi@oracle@@QBE?AUBFloat@23@XZ
?getBFloat@ResultSetImpl@occi@oracle@@UAE?AUBFloat@23@I@Z
?getBFloat@StatementImpl@occi@oracle@@UAE?AUBFloat@23@I@Z
?getBatchErrorMode@StatementImpl@occi@oracle@@UBE_NXZ
?getBfile@AnyData@occi@oracle@@QBE?AVBfile@23@XZ
?getBfile@AnyDataImpl@occi@oracle@@QBE?AVBfile@23@XZ
?getBfile@ResultSetImpl@occi@oracle@@UAE?AVBfile@23@I@Z
?getBfile@StatementImpl@occi@oracle@@UAE?AVBfile@23@I@Z
?getBindAnyDataVec@StatementImpl@occi@oracle@@QAEPAPAUOCIAnyData@@IPAXI0IPAPAUOCIType@@@Z
?getBlob@AnyData@occi@oracle@@QBE?AVBlob@23@XZ
?getBlob@AnyDataImpl@occi@oracle@@QBE?AVBlob@23@XZ
?getBlob@ResultSetImpl@occi@oracle@@UAE?AVBlob@23@I@Z
?getBlob@StatementImpl@occi@oracle@@UAE?AVBlob@23@I@Z
?getBoolean@MetaData@occi@oracle@@QBE_NW4AttrId@123@@Z
?getBusyConnections@ConnectionPoolImpl@occi@oracle@@UBEIXZ
?getBusyConnections@StatelessConnectionPoolImpl@occi@oracle@@UBEIXZ
?getBusyOption@StatelessConnectionPoolImpl@occi@oracle@@UBE?AW4BusyOption@StatelessConnectionPool@23@XZ
?getBytes@AnyData@occi@oracle@@QBE?AVBytes@23@XZ
?getBytes@AnyDataImpl@occi@oracle@@QBE?AVBytes@23@XZ
?getBytes@Bytes@occi@oracle@@QBEXPAEIII@Z
?getBytes@BytesImpl@occi@oracle@@QBEXPAEIII@Z
?getBytes@Message@aq@occi@oracle@@QBE?AVBytes@34@XZ
?getBytes@MessageImpl@aq@occi@oracle@@QBE?AVBytes@34@XZ
?getBytes@ResultSetImpl@occi@oracle@@UAE?AVBytes@23@I@Z
?getBytes@StatementImpl@occi@oracle@@UAE?AVBytes@23@I@Z
?getCacheMaxSize@EnvironmentImpl@occi@oracle@@UBEIXZ
?getCacheOptSize@EnvironmentImpl@occi@oracle@@UBEIXZ
?getCacheSortedFlush@EnvironmentImpl@occi@oracle@@UBE_NXZ
?getCachedTDO@MapImpl@occi@oracle@@QAEPAUOCIType@@PBVConnectionImpl@23@ABUSchemaType@23@@Z
?getCachedTable@MapImpl@occi@oracle@@QAEPAXPBVConnectionImpl@23@PBXI1I@Z
?getCallbackContext@Subscription@aq@occi@oracle@@QBEPAXXZ
?getCallbackContext@SubscriptionImpl@aq@occi@oracle@@QBEPAXXZ
?getCharSet@ResultSetImpl@occi@oracle@@UBE?AV?$basic_string@DU?$char_traits@D@std@@V?$allocator@D@2@@std@@I@Z
?getCharSet@StatementImpl@occi@oracle@@UBE?AV?$basic_string@DU?$char_traits@D@std@@V?$allocator@D@2@@std@@I@Z
?getCharSetForm@Clob@occi@oracle@@QBE?AW4CharSetForm@23@XZ
?getCharSetId@Clob@occi@oracle@@QBE?AV?$basic_string@DU?$char_traits@D@std@@V?$allocator@D@2@@std@@XZ
?getCharSetIdUString@Clob@occi@oracle@@QBE?AV?$basic_string@GU?$char_traits@G@std@@V?$allocator@G@2@@std@@XZ
?getCharSetUString@ResultSetImpl@occi@oracle@@UBE?AV?$basic_string@GU?$char_traits@G@std@@V?$allocator@G@2@@std@@I@Z
?getCharSetUString@StatementImpl@occi@oracle@@UBE?AV?$basic_string@GU?$char_traits@G@std@@V?$allocator@G@2@@std@@I@Z
?getChunkSize@Blob@occi@oracle@@QBEIXZ
?getChunkSize@Clob@occi@oracle@@QBEIXZ
?getClientCharSet@ConnectionImpl@occi@oracle@@UBE?AV?$basic_string@DU?$char_traits@D@std@@V?$allocator@D@2@@std@@XZ
?getClientCharSetUString@ConnectionImpl@occi@oracle@@UBE?AV?$basic_string@GU?$char_traits@G@std@@V?$allocator@G@2@@std@@XZ
?getClientNCHARCharSet@ConnectionImpl@occi@oracle@@UBE?AV?$basic_string@DU?$char_traits@D@std@@V?$allocator@D@2@@std@@XZ
?getClientNCHARCharSetUString@ConnectionImpl@occi@oracle@@UBE?AV?$basic_string@GU?$char_traits@G@std@@V?$allocator@G@2@@std@@XZ
?getClientVersion@Environment@occi@oracle@@SAXAAH0000@Z
?getClob@AnyData@occi@oracle@@QBE?AVClob@23@XZ
?getClob@AnyDataImpl@occi@oracle@@QBE?AVClob@23@XZ
?getClob@ResultSetImpl@occi@oracle@@UAE?AVClob@23@I@Z
?getClob@StatementImpl@occi@oracle@@UAE?AVClob@23@I@Z
?getColumnListMetaData@ResultSetImpl@occi@oracle@@UBE?AV?$vector@VMetaData@occi@oracle@@V?$allocator@VMetaData@occi@oracle@@@std@@@std@@XZ
?getConnection@AnyData@occi@oracle@@QBEPBVConnection@23@XZ
?getConnection@AnyDataImpl@occi@oracle@@QBEPBVConnection@23@XZ
?getConnection@PObject@occi@oracle@@QBEPBVConnection@23@XZ
?getConnection@RefAny@occi@oracle@@QBEPBVConnection@23@XZ
?getConnection@RefImpl@occi@oracle@@QBEPBVConnection@23@XZ
?getConnection@StatelessConnectionPoolImpl@occi@oracle@@UAEPAVConnection@23@ABV?$basic_string@DU?$char_traits@D@std@@V?$allocator@D@2@@std@@00@Z
?getConnection@StatelessConnectionPoolImpl@occi@oracle@@UAEPAVConnection@23@ABV?$basic_string@DU?$char_traits@D@std@@V?$allocator@D@2@@std@@@Z
?getConnection@StatelessConnectionPoolImpl@occi@oracle@@UAEPAVConnection@23@ABV?$basic_string@GU?$char_traits@G@std@@V?$allocator@G@2@@std@@00@Z
?getConnection@StatelessConnectionPoolImpl@occi@oracle@@UAEPAVConnection@23@ABV?$basic_string@GU?$char_traits@G@std@@V?$allocator@G@2@@std@@@Z
?getConnection@StatementImpl@occi@oracle@@UBEPAVConnection@23@XZ
?getConsumerName@Consumer@aq@occi@oracle@@QBE?AV?$basic_string@DU?$char_traits@D@std@@V?$allocator@D@2@@std@@XZ
?getConsumerName@ConsumerImpl@aq@occi@oracle@@QBE?AV?$basic_string@DU?$char_traits@D@std@@V?$allocator@D@2@@std@@XZ
?getConsumerName@NotifyResult@aq@occi@oracle@@QBE?AV?$basic_string@DU?$char_traits@D@std@@V?$allocator@D@2@@std@@XZ
?getContentType@Blob@occi@oracle@@QAE?AV?$basic_string@DU?$char_traits@D@std@@V?$allocator@D@2@@std@@XZ
?getContentType@Clob@occi@oracle@@QAE?AV?$basic_string@DU?$char_traits@D@std@@V?$allocator@D@2@@std@@XZ
?getCor@RefImpl@occi@oracle@@QBEPAUOCIComplexObject@@XZ
?getCorrelationId@Consumer@aq@occi@oracle@@QBE?AV?$basic_string@DU?$char_traits@D@std@@V?$allocator@D@2@@std@@XZ
?getCorrelationId@ConsumerImpl@aq@occi@oracle@@QBE?AV?$basic_string@DU?$char_traits@D@std@@V?$allocator@D@2@@std@@XZ
?getCorrelationId@Message@aq@occi@oracle@@QBE?AV?$basic_string@DU?$char_traits@D@std@@V?$allocator@D@2@@std@@XZ
?getCorrelationId@MessageImpl@aq@occi@oracle@@QBE?AV?$basic_string@DU?$char_traits@D@std@@V?$allocator@D@2@@std@@XZ
?getCurrentHeapSize@EnvironmentImpl@occi@oracle@@UBEIXZ
?getCurrentIteration@StatementImpl@occi@oracle@@UBEIXZ
?getCurrentStreamColumn@ResultSetImpl@occi@oracle@@UBEIXZ
?getCurrentStreamIteration@StatementImpl@occi@oracle@@UBEIXZ
?getCurrentStreamParam@StatementImpl@occi@oracle@@UBEIXZ
?getCurrentStreamRow@ResultSetImpl@occi@oracle@@UBEIXZ
?getCursor@ResultSetImpl@occi@oracle@@UAEPAVResultSet@23@I@Z
?getCursor@StatementImpl@occi@oracle@@UAEPAVResultSet@23@I@Z
?getData@MessageImpl@aq@occi@oracle@@QAEPAXXZ
?getDatabaseNCHARParam@ResultSetImpl@occi@oracle@@UBE_NI@Z
?getDatabaseNCHARParam@StatementImpl@occi@oracle@@UBE_NI@Z
?getDatabaseServerNames@Subscription@aq@occi@oracle@@QBE?AV?$vector@V?$basic_string@DU?$char_traits@D@std@@V?$allocator@D@2@@std@@V?$allocator@V?$basic_string@DU?$char_traits@D@std@@V?$allocator@D@2@@std@@@2@@std@@XZ
?getDatabaseServerNames@SubscriptionImpl@aq@occi@oracle@@QBE?AV?$vector@V?$basic_string@DU?$char_traits@D@std@@V?$allocator@D@2@@std@@V?$allocator@V?$basic_string@DU?$char_traits@D@std@@V?$allocator@D@2@@std@@@2@@std@@XZ
?getDatabaseServersCount@Subscription@aq@occi@oracle@@QBEIXZ
?getDatabaseServersCount@SubscriptionImpl@aq@occi@oracle@@QBEIXZ
?getDate@AnyData@occi@oracle@@QBE?AVDate@23@XZ
?getDate@AnyDataImpl@occi@oracle@@QBE?AVDate@23@XZ
?getDate@Date@occi@oracle@@QBEXAAHAAI1111@Z
?getDate@ResultSetImpl@occi@oracle@@UAE?AVDate@23@I@Z
?getDate@StatementImpl@occi@oracle@@UAE?AVDate@23@I@Z
?getDate@Timestamp@occi@oracle@@QBEXAAHAAI1@Z
?getDay@IntervalDS@occi@oracle@@QBEHXZ
?getDeduplicateRegions@Blob@occi@oracle@@QAEXAAV?$vector@V?$LobRegion@VBlob@occi@oracle@@@occi@oracle@@V?$allocator@V?$LobRegion@VBlob@occi@oracle@@@occi@oracle@@@std@@@std@@@Z
?getDeduplicateRegions@Clob@occi@oracle@@QAEXAAV?$vector@V?$LobRegion@VClob@occi@oracle@@@occi@oracle@@V?$allocator@V?$LobRegion@VClob@occi@oracle@@@occi@oracle@@@std@@@std@@@Z
?getDefineAnyData@ResultSetImpl@occi@oracle@@QAEPAUOCIAnyData@@I@Z
?getDelay@Message@aq@occi@oracle@@QBEHXZ
?getDelay@MessageImpl@aq@occi@oracle@@QBEHXZ
?getDequeueMode@Consumer@aq@occi@oracle@@QBE?AW4DequeueMode@1234@XZ
?getDequeueMode@ConsumerImpl@aq@occi@oracle@@QBE?AW4DequeueMode@Consumer@234@XZ
?getDirAlias@Bfile@occi@oracle@@QBE?AV?$basic_string@DU?$char_traits@D@std@@V?$allocator@D@2@@std@@XZ
?getDouble@ResultSetImpl@occi@oracle@@UAENI@Z
?getDouble@StatementImpl@occi@oracle@@UAENI@Z
?getEnvironment@ConnectionPoolImpl@occi@oracle@@QBEPBVEnvironment@23@XZ
?getEnvironment@StatelessConnectionPoolImpl@occi@oracle@@QBEPBVEnvironment@23@XZ
?getEnvironment@Subscription@aq@occi@oracle@@QBEPAVEnvironment@34@XZ
?getEnvironment@SubscriptionImpl@aq@occi@oracle@@QBEPAVEnvironment@34@XZ
?getErrorCode@SQLException@occi@oracle@@UBEHXZ
?getErrorCode@SQLExceptionImpl@occi@oracle@@QBEHXZ
?getException@BatchSQLException@occi@oracle@@QBE?AVSQLException@23@I@Z
?getException@BatchSQLExceptionImpl@occi@oracle@@UBEPAVSQLExceptionImpl@23@I@Z
?getException@SQLExceptionImpl@occi@oracle@@UBEPAV123@I@Z
?getExceptionQueueName@Message@aq@occi@oracle@@QBE?AV?$basic_string@DU?$char_traits@D@std@@V?$allocator@D@2@@std@@XZ
?getExceptionQueueName@MessageImpl@aq@occi@oracle@@QBE?AV?$basic_string@DU?$char_traits@D@std@@V?$allocator@D@2@@std@@XZ
?getExpiration@Message@aq@occi@oracle@@QBEHXZ
?getExpiration@MessageImpl@aq@occi@oracle@@QBEHXZ
?getFailedRowCount@BatchSQLException@occi@oracle@@QBEIXZ
?getFailedRowCount@BatchSQLExceptionImpl@occi@oracle@@UBEIXZ
?getFailedRowCount@SQLExceptionImpl@occi@oracle@@UBEIXZ
?getFileName@Bfile@occi@oracle@@QBE?AV?$basic_string@DU?$char_traits@D@std@@V?$allocator@D@2@@std@@XZ
?getFloat@ResultSetImpl@occi@oracle@@UAEMI@Z
?getFloat@StatementImpl@occi@oracle@@UAEMI@Z
?getFracSec@IntervalDS@occi@oracle@@QBEHXZ
?getHour@IntervalDS@occi@oracle@@QBEHXZ
?getIncrConnections@ConnectionPoolImpl@occi@oracle@@UBEIXZ
?getIncrConnections@StatelessConnectionPoolImpl@occi@oracle@@UBEIXZ
?getInt@MetaData@occi@oracle@@QBEHW4AttrId@123@@Z
?getInt@ResultSetImpl@occi@oracle@@UAEHI@Z
?getInt@StatementImpl@occi@oracle@@UAEHI@Z
?getIntervalDS@AnyData@occi@oracle@@QBE?AVIntervalDS@23@XZ
?getIntervalDS@AnyDataImpl@occi@oracle@@QBE?AVIntervalDS@23@XZ
?getIntervalDS@ResultSetImpl@occi@oracle@@UAE?AVIntervalDS@23@I@Z
?getIntervalDS@StatementImpl@occi@oracle@@UAE?AVIntervalDS@23@I@Z
?getIntervalYM@AnyData@occi@oracle@@QBE?AVIntervalYM@23@XZ
?getIntervalYM@AnyDataImpl@occi@oracle@@QBE?AVIntervalYM@23@XZ
?getIntervalYM@ResultSetImpl@occi@oracle@@UAE?AVIntervalYM@23@I@Z
?getIntervalYM@StatementImpl@occi@oracle@@UAE?AVIntervalYM@23@I@Z
?getLDAPAdminContext@EnvironmentImpl@occi@oracle@@UBE?AV?$basic_string@DU?$char_traits@D@std@@V?$allocator@D@2@@std@@XZ
?getLDAPAuthentication@EnvironmentImpl@occi@oracle@@UBEIXZ
?getLDAPHost@EnvironmentImpl@occi@oracle@@UBE?AV?$basic_string@DU?$char_traits@D@std@@V?$allocator@D@2@@std@@XZ
?getLDAPPort@EnvironmentImpl@occi@oracle@@UBEIXZ
?getListType@MetaData@occi@oracle@@ABEHPBUOCIParam@@@Z
?getLocator@Bfile@occi@oracle@@ABEPAUOCILobLocator@@XZ
?getLocator@Blob@occi@oracle@@ABEPAUOCILobLocator@@XZ
?getLocator@Clob@occi@oracle@@ABEPAUOCILobLocator@@XZ
?getLowerBound@MetaData@occi@oracle@@ABEIH@Z
?getMap@EnvironmentImpl@occi@oracle@@UBEPAVMap@23@XZ
?getMaxColumnSize@ResultSetImpl@occi@oracle@@UBEII@Z
?getMaxConnections@ConnectionPoolImpl@occi@oracle@@UBEIXZ
?getMaxConnections@StatelessConnectionPoolImpl@occi@oracle@@UBEIXZ
?getMaxIterations@StatementImpl@occi@oracle@@UBEIXZ
?getMaxParamSize@StatementImpl@occi@oracle@@UBEII@Z
?getMessage@NotifyResult@aq@occi@oracle@@QBE?AVMessage@234@XZ
?getMessage@SQLException@occi@oracle@@UBE?AV?$basic_string@DU?$char_traits@D@std@@V?$allocator@D@2@@std@@XZ
?getMessage@SQLExceptionImpl@occi@oracle@@QBE?AV?$basic_string@DU?$char_traits@D@std@@V?$allocator@D@2@@std@@XZ
?getMessageEnqueuedTime@Message@aq@occi@oracle@@QBE?AVDate@34@XZ
?getMessageEnqueuedTime@MessageImpl@aq@occi@oracle@@QBE?AVDate@34@XZ
?getMessageId@NotifyResult@aq@occi@oracle@@QBE?AVBytes@34@XZ
?getMessageIdToDequeue@Consumer@aq@occi@oracle@@QBE?AVBytes@34@XZ
?getMessageIdToDequeue@ConsumerImpl@aq@occi@oracle@@QBE?AVBytes@34@XZ
?getMessageState@Message@aq@occi@oracle@@QBE?AW4MessageState@1234@XZ
?getMessageState@MessageImpl@aq@occi@oracle@@QBE?AW4MessageState@Message@234@XZ
?getMetaData@ConnectionImpl@occi@oracle@@UBE?AVMetaData@23@ABV?$basic_string@DU?$char_traits@D@std@@V?$allocator@D@2@@std@@W4ParamType@423@@Z
?getMetaData@ConnectionImpl@occi@oracle@@UBE?AVMetaData@23@ABV?$basic_string@GU?$char_traits@G@std@@V?$allocator@G@2@@std@@W4ParamType@423@@Z
?getMetaData@ConnectionImpl@occi@oracle@@UBE?AVMetaData@23@ABVRefAny@23@@Z
?getMetaData@MetaData@occi@oracle@@QBE?AV123@W4AttrId@123@@Z
?getMinConnections@ConnectionPoolImpl@occi@oracle@@UBEIXZ
?getMinConnections@StatelessConnectionPoolImpl@occi@oracle@@UBEIXZ
?getMinute@IntervalDS@occi@oracle@@QBEHXZ
?getMonth@IntervalYM@occi@oracle@@QBEHXZ
?getNLSMessage@SQLException@occi@oracle@@UBE?AV?$basic_string@DU?$char_traits@D@std@@V?$allocator@D@2@@std@@PAVEnvironment@23@@Z
?getNLSMessage@SQLExceptionImpl@occi@oracle@@QBE?AV?$basic_string@DU?$char_traits@D@std@@V?$allocator@D@2@@std@@PAVEnvironment@23@@Z
?getNLSUStringMessage@SQLException@occi@oracle@@UBE?AV?$basic_string@GU?$char_traits@G@std@@V?$allocator@G@2@@std@@PAVEnvironment@23@@Z
?getNLSUStringMessage@SQLExceptionImpl@occi@oracle@@QBE?AV?$basic_string@GU?$char_traits@G@std@@V?$allocator@G@2@@std@@PAVEnvironment@23@@Z
?getName@Agent@aq@occi@oracle@@QBE?AV?$basic_string@DU?$char_traits@D@std@@V?$allocator@D@2@@std@@XZ
?getName@AgentImpl@aq@occi@oracle@@QBE?AV?$basic_string@DU?$char_traits@D@std@@V?$allocator@D@2@@std@@XZ
?getNotifyCallback@Subscription@aq@occi@oracle@@QBEP6AIAAV1234@PAVNotifyResult@234@@ZXZ
?getNotifyCallback@SubscriptionImpl@aq@occi@oracle@@QBEP6AIAAVSubscription@234@PAVNotifyResult@234@@ZXZ
?getNumArrayRows@ResultSetImpl@occi@oracle@@UBEIXZ
?getNumber@AnyData@occi@oracle@@QBE?AVNumber@23@XZ
?getNumber@AnyDataImpl@occi@oracle@@QBE?AVNumber@23@XZ
?getNumber@MetaData@occi@oracle@@QBE?AVNumber@23@W4AttrId@123@@Z
?getNumber@ResultSetImpl@occi@oracle@@UAE?AVNumber@23@I@Z
?getNumber@StatementImpl@occi@oracle@@UAE?AVNumber@23@I@Z
?getOCIAQAgent@Agent@aq@occi@oracle@@QBEPAUOCIAQAgent@@XZ
?getOCIAQAgent@AgentImpl@aq@occi@oracle@@QBEPAUOCIAQAgent@@XZ
?getOCIAnyData@AnyData@occi@oracle@@QBEPAUOCIAnyData@@XZ
?getOCIAnyData@AnyDataImpl@occi@oracle@@QBEPAUOCIAnyData@@XZ
?getOCICPool@ConnectionPoolImpl@occi@oracle@@QBEPAUOCICPool@@XZ
?getOCIEnvironment@ConnectionImpl@occi@oracle@@QBEPAUOCIEnv@@XZ
?getOCIEnvironment@ConnectionPoolImpl@occi@oracle@@QBEPAUOCIEnv@@XZ
?getOCIEnvironment@EnvironmentImpl@occi@oracle@@UBEPAUOCIEnv@@XZ
?getOCIEnvironment@StatelessConnectionPoolImpl@occi@oracle@@QBEPAUOCIEnv@@XZ
?getOCIError@ConnectionPoolImpl@occi@oracle@@QBEPAUOCIError@@XZ
?getOCIError@EnvironmentImpl@occi@oracle@@UBEPAUOCIError@@XZ
?getOCIMsgProperties@Message@aq@occi@oracle@@ABEPAUOCIAQMsgProperties@@XZ
?getOCIMsgProperties@MessageImpl@aq@occi@oracle@@QBEPAUOCIAQMsgProperties@@XZ
?getOCIParam@StatementImpl@occi@oracle@@QBEPAUOCIParam@@I@Z
?getOCIServer@ConnectionImpl@occi@oracle@@UBEPAUOCIServer@@XZ
?getOCIServiceContext@ConnectionImpl@occi@oracle@@UBEPAUOCISvcCtx@@XZ
?getOCISession@ConnectionImpl@occi@oracle@@UBEPAUOCISession@@XZ
?getOCIStatement@StatementImpl@occi@oracle@@UBEPAUOCIStmt@@XZ
?getOCISubscription@Subscription@aq@occi@oracle@@QBEPAUOCISubscription@@XZ
?getOCISubscription@SubscriptionImpl@aq@occi@oracle@@QBEPAUOCISubscription@@XZ
?getObject@AnyData@occi@oracle@@QBEPAVPObject@23@P6APAXPAX@Z@Z
?getObject@AnyDataImpl@occi@oracle@@QBEPAVPObject@23@P6APAXPAX@Z@Z
?getObject@Message@aq@occi@oracle@@QAEPAVPObject@34@XZ
?getObject@MessageImpl@aq@occi@oracle@@QAEPAVPObject@34@XZ
?getObject@ResultSetImpl@occi@oracle@@UAEPAVPObject@23@I@Z
?getObject@StatementImpl@occi@oracle@@UAEPAVPObject@23@I@Z
?getOpenConnections@ConnectionPoolImpl@occi@oracle@@UBEIXZ
?getOpenConnections@StatelessConnectionPoolImpl@occi@oracle@@UBEIXZ
?getOptions@Blob@occi@oracle@@QAE?AW4LobOptionValue@23@W4LobOptionType@23@@Z
?getOptions@Clob@occi@oracle@@QAE?AW4LobOptionValue@23@W4LobOptionType@23@@Z
?getOriginalMessageId@Message@aq@occi@oracle@@QBE?AVBytes@34@XZ
?getOriginalMessageId@MessageImpl@aq@occi@oracle@@QBE?AVBytes@34@XZ
?getParamHandle@MetaDataImpl@occi@oracle@@QAEPAUOCIParam@@XZ
?getParamType@MetaData@occi@oracle@@ABEEPAUOCIParam@@@Z
?getPayload@NotifyResult@aq@occi@oracle@@QBE?AVBytes@34@XZ
?getPayload@Subscription@aq@occi@oracle@@QBE?AVBytes@34@XZ
?getPayload@SubscriptionImpl@aq@occi@oracle@@QBE?AVBytes@34@XZ
?getPayloadType@Message@aq@occi@oracle@@QBE?AW4PayloadType@1234@XZ
?getPayloadType@MessageImpl@aq@occi@oracle@@QBE?AW4PayloadType@Message@234@XZ
?getPoolName@ConnectionPoolImpl@occi@oracle@@UBE?AV?$basic_string@DU?$char_traits@D@std@@V?$allocator@D@2@@std@@XZ
?getPoolName@StatelessConnectionPoolImpl@occi@oracle@@UBE?AV?$basic_string@DU?$char_traits@D@std@@V?$allocator@D@2@@std@@XZ
?getPoolNamePtr@ConnectionPoolImpl@occi@oracle@@QBEXAAPAXAAH@Z
?getPoolNamePtr@StatelessConnectionPoolImpl@occi@oracle@@QBEXAAPAXAAI@Z
?getPoolNameUString@ConnectionPoolImpl@occi@oracle@@UBE?AV?$basic_string@GU?$char_traits@G@std@@V?$allocator@G@2@@std@@XZ
?getPositionOfMessage@Consumer@aq@occi@oracle@@QBE?AW4Navigation@1234@XZ
?getPositionOfMessage@ConsumerImpl@aq@occi@oracle@@QBE?AW4Navigation@Consumer@234@XZ
?getPresentation@Subscription@aq@occi@oracle@@QBE?AW4Presentation@1234@XZ
?getPresentation@SubscriptionImpl@aq@occi@oracle@@QBE?AW4Presentation@Subscription@234@XZ
?getPriority@Message@aq@occi@oracle@@QBEHXZ
?getPriority@MessageImpl@aq@occi@oracle@@QBEHXZ
?getProtocol@Agent@aq@occi@oracle@@QBEIXZ
?getProtocol@AgentImpl@aq@occi@oracle@@QBEIXZ
?getProtocol@Subscription@aq@occi@oracle@@QBE?AW4Protocol@1234@XZ
?getProtocol@SubscriptionImpl@aq@occi@oracle@@QBE?AW4Protocol@Subscription@234@XZ
?getProxyConnection@StatelessConnectionPoolImpl@occi@oracle@@UAEPAVConnection@23@ABV?$basic_string@DU?$char_traits@D@std@@V?$allocator@D@2@@std@@0W4ProxyType@423@@Z
?getProxyConnection@StatelessConnectionPoolImpl@occi@oracle@@UAEPAVConnection@23@ABV?$basic_string@DU?$char_traits@D@std@@V?$allocator@D@2@@std@@QAV56@I0W4ProxyType@423@@Z
?getProxyConnection@StatelessConnectionPoolImpl@occi@oracle@@UAEPAVConnection@23@ABV?$basic_string@GU?$char_traits@G@std@@V?$allocator@G@2@@std@@0W4ProxyType@423@@Z
?getProxyConnection@StatelessConnectionPoolImpl@occi@oracle@@UAEPAVConnection@23@ABV?$basic_string@GU?$char_traits@G@std@@V?$allocator@G@2@@std@@QAV?$basic_string@DU?$char_traits@D@std@@V?$allocator@D@2@@6@I0W4ProxyType@423@@Z
?getQueueName@Consumer@aq@occi@oracle@@QBE?AV?$basic_string@DU?$char_traits@D@std@@V?$allocator@D@2@@std@@XZ
?getQueueName@ConsumerImpl@aq@occi@oracle@@QBE?AV?$basic_string@DU?$char_traits@D@std@@V?$allocator@D@2@@std@@XZ
?getQueueName@NotifyResult@aq@occi@oracle@@QBE?AV?$basic_string@DU?$char_traits@D@std@@V?$allocator@D@2@@std@@XZ
?getQueueName@Producer@aq@occi@oracle@@QBE?AV?$basic_string@DU?$char_traits@D@std@@V?$allocator@D@2@@std@@XZ
?getQueueName@ProducerImpl@aq@occi@oracle@@QBE?AV?$basic_string@DU?$char_traits@D@std@@V?$allocator@D@2@@std@@XZ
?getReadSQL@MapImpl@occi@oracle@@UBEXPAXI0IPAPAX@Z
?getRecipientName@Subscription@aq@occi@oracle@@QBE?AV?$basic_string@DU?$char_traits@D@std@@V?$allocator@D@2@@std@@XZ
?getRecipientName@SubscriptionImpl@aq@occi@oracle@@QBE?AV?$basic_string@DU?$char_traits@D@std@@V?$allocator@D@2@@std@@XZ
?getRef@AnyData@occi@oracle@@QBE?AVRefAny@23@XZ
?getRef@AnyDataImpl@occi@oracle@@QBE?AVRefAny@23@XZ
?getRef@MetaData@occi@oracle@@QBE?AVRefAny@23@W4AttrId@123@@Z
?getRef@PObject@occi@oracle@@QBE?AVRefAny@23@XZ
?getRef@RefAny@occi@oracle@@QBEPAUOCIRef@@XZ
?getRef@RefImpl@occi@oracle@@QBEPAUOCIRef@@XZ
?getRef@ResultSetImpl@occi@oracle@@UAE?AVRefAny@23@I@Z
?getRef@StatementImpl@occi@oracle@@UAE?AVRefAny@23@I@Z
?getRelativeMessageId@Producer@aq@occi@oracle@@QBE?AVBytes@34@XZ
?getRelativeMessageId@ProducerImpl@aq@occi@oracle@@QBE?AVBytes@34@XZ
?getResultSet@StatementImpl@occi@oracle@@UAEPAVResultSet@23@XZ
?getRowNum@BatchSQLException@occi@oracle@@QBEII@Z
?getRowNum@BatchSQLExceptionImpl@occi@oracle@@UBEII@Z
?getRowNum@SQLExceptionImpl@occi@oracle@@UBEII@Z
?getRowPosition@ResultSetImpl@occi@oracle@@UBE?AVBytes@23@XZ
?getRowid@ResultSetImpl@occi@oracle@@UAE?AVBytes@23@I@Z
?getRowid@StatementImpl@occi@oracle@@UAE?AVBytes@23@I@Z
?getSQL@StatementImpl@occi@oracle@@UBE?AV?$basic_string@DU?$char_traits@D@std@@V?$allocator@D@2@@std@@XZ
?getSQLType@StatementImpl@occi@oracle@@AAEGW4Type@23@@Z
?getSQLTypeName@MapImpl@occi@oracle@@UBE?AUSchemaType@23@P6APAXPAX@Z@Z
?getSQLTypeName@PObject@occi@oracle@@QBEXPAVEnvironment@23@P6APAXPAX@ZPAPAXAAI34@Z
?getSQLUString@StatementImpl@occi@oracle@@UBE?AV?$basic_string@GU?$char_traits@G@std@@V?$allocator@G@2@@std@@XZ
?getSecond@IntervalDS@occi@oracle@@QBEHXZ
?getSenderId@Message@aq@occi@oracle@@QBE?AVAgent@234@XZ
?getSenderId@MessageImpl@aq@occi@oracle@@QBE?AVAgent@234@XZ
?getSequenceDeviation@Producer@aq@occi@oracle@@QBE?AW4EnqueueSequence@1234@XZ
?getSequenceDeviation@ProducerImpl@aq@occi@oracle@@QBE?AW4EnqueueSequence@Producer@234@XZ
?getServerVersion@ConnectionImpl@occi@oracle@@UBE?AV?$basic_string@DU?$char_traits@D@std@@V?$allocator@D@2@@std@@XZ
?getServerVersionUString@ConnectionImpl@occi@oracle@@UBE?AV?$basic_string@GU?$char_traits@G@std@@V?$allocator@G@2@@std@@XZ
?getStatement@ResultSetImpl@occi@oracle@@UBEPAVStatement@23@XZ
?getStmtCacheSize@ConnectionImpl@occi@oracle@@UBEIXZ
?getStmtCacheSize@ConnectionPoolImpl@occi@oracle@@UBEIXZ
?getStmtCacheSize@StatelessConnectionPoolImpl@occi@oracle@@UBEIXZ
?getStream@Bfile@occi@oracle@@QAEPAVStream@23@II@Z
?getStream@Blob@occi@oracle@@QAEPAVStream@23@II@Z
?getStream@Clob@occi@oracle@@QAEPAVStream@23@II@Z
?getStream@ResultSetImpl@occi@oracle@@UAEPAVStream@23@I@Z
?getStream@StatementImpl@occi@oracle@@UAEPAVStream@23@I@Z
?getString@AnyData@occi@oracle@@QBE?AV?$basic_string@DU?$char_traits@D@std@@V?$allocator@D@2@@std@@XZ
?getString@AnyDataImpl@occi@oracle@@QBE?AV?$basic_string@DU?$char_traits@D@std@@V?$allocator@D@2@@std@@XZ
?getString@MetaData@occi@oracle@@QBE?AV?$basic_string@DU?$char_traits@D@std@@V?$allocator@D@2@@std@@W4AttrId@123@@Z
?getString@ResultSetImpl@occi@oracle@@UAE?AV?$basic_string@DU?$char_traits@D@std@@V?$allocator@D@2@@std@@I@Z
?getString@StatementImpl@occi@oracle@@UAE?AV?$basic_string@DU?$char_traits@D@std@@V?$allocator@D@2@@std@@I@Z
?getSubscriptionName@Subscription@aq@occi@oracle@@QBE?AV?$basic_string@DU?$char_traits@D@std@@V?$allocator@D@2@@std@@XZ
?getSubscriptionName@SubscriptionImpl@aq@occi@oracle@@QBE?AV?$basic_string@DU?$char_traits@D@std@@V?$allocator@D@2@@std@@XZ
?getSubscriptionNamespace@Subscription@aq@occi@oracle@@QBE?AW4Namespace@1234@XZ
?getSubscriptionNamespace@SubscriptionImpl@aq@occi@oracle@@QBE?AW4Namespace@Subscription@234@XZ
?getSystemDate@Date@occi@oracle@@SA?AV123@PBVEnvironment@23@@Z
?getTDOForCollectionElement@occi@oracle@@YA?AUAnyCollElem@12@PAUOCIAnyData@@PAUOCIDescribe@@PAUOCIError@@PAUOCISvcCtx@@PAUOCIEnv@@@Z
?getTDOForCollectionElement@occi@oracle@@YAPAUOCIType@@PAU3@PAUOCIDescribe@@PAUOCIError@@PAUOCISvcCtx@@PAUOCIEnv@@@Z
?getTag@ConnectionImpl@occi@oracle@@UBE?AV?$basic_string@DU?$char_traits@D@std@@V?$allocator@D@2@@std@@XZ
?getTime@Timestamp@occi@oracle@@QBEXAAI000@Z
?getTimeOut@ConnectionPoolImpl@occi@oracle@@UBEIXZ
?getTimeOut@StatelessConnectionPoolImpl@occi@oracle@@UBEIXZ
?getTimeOutForListen@Listener@aq@occi@oracle@@QBEHXZ
?getTimeZoneOffset@Timestamp@occi@oracle@@QBEXAAH0@Z
?getTimestamp@AnyData@occi@oracle@@QBE?AVTimestamp@23@XZ
?getTimestamp@AnyDataImpl@occi@oracle@@QBE?AVTimestamp@23@XZ
?getTimestamp@MetaData@occi@oracle@@QBE?AVTimestamp@23@W4AttrId@123@@Z
?getTimestamp@ResultSetImpl@occi@oracle@@UAE?AVTimestamp@23@I@Z
?getTimestamp@StatementImpl@occi@oracle@@UAE?AVTimestamp@23@I@Z
?getTransformation@Consumer@aq@occi@oracle@@QBE?AV?$basic_string@DU?$char_traits@D@std@@V?$allocator@D@2@@std@@XZ
?getTransformation@ConsumerImpl@aq@occi@oracle@@QBE?AV?$basic_string@DU?$char_traits@D@std@@V?$allocator@D@2@@std@@XZ
?getTransformation@Producer@aq@occi@oracle@@QBE?AV?$basic_string@DU?$char_traits@D@std@@V?$allocator@D@2@@std@@XZ
?getTransformation@ProducerImpl@aq@occi@oracle@@QBE?AV?$basic_string@DU?$char_traits@D@std@@V?$allocator@D@2@@std@@XZ
?getType@AnyData@occi@oracle@@QBE?AW4TypeCode@23@XZ
?getType@AnyDataImpl@occi@oracle@@QBE?AW4TypeCode@23@XZ
?getType@MetaData@occi@oracle@@ABE?AW4Type@23@W4ociAttrType@123@@Z
?getUInt@MetaData@occi@oracle@@QBEIW4AttrId@123@@Z
?getUInt@ResultSetImpl@occi@oracle@@UAEII@Z
?getUInt@StatementImpl@occi@oracle@@UAEII@Z
?getUString@AnyData@occi@oracle@@QBE?AV?$basic_string@GU?$char_traits@G@std@@V?$allocator@G@2@@std@@XZ
?getUString@AnyDataImpl@occi@oracle@@QBE?AV?$basic_string@GU?$char_traits@G@std@@V?$allocator@G@2@@std@@XZ
?getUString@MetaData@occi@oracle@@QBE?AV?$basic_string@GU?$char_traits@G@std@@V?$allocator@G@2@@std@@W4AttrId@123@@Z
?getUString@ResultSetImpl@occi@oracle@@UAE?AV?$basic_string@GU?$char_traits@G@std@@V?$allocator@G@2@@std@@I@Z
?getUString@StatementImpl@occi@oracle@@UAE?AV?$basic_string@GU?$char_traits@G@std@@V?$allocator@G@2@@std@@I@Z
?getUStringDirAlias@Bfile@occi@oracle@@QBE?AV?$basic_string@GU?$char_traits@G@std@@V?$allocator@G@2@@std@@XZ
?getUStringFileName@Bfile@occi@oracle@@QBE?AV?$basic_string@GU?$char_traits@G@std@@V?$allocator@G@2@@std@@XZ
?getUStringMessage@SQLException@occi@oracle@@UBE?AV?$basic_string@GU?$char_traits@G@std@@V?$allocator@G@2@@std@@XZ
?getUStringMessage@SQLExceptionImpl@occi@oracle@@QBE?AV?$basic_string@GU?$char_traits@G@std@@V?$allocator@G@2@@std@@XZ
?getUpdateCount@StatementImpl@occi@oracle@@UBEIXZ
?getUpperBound@MetaData@occi@oracle@@ABEIII@Z
?getUserName@ConnectionImpl@occi@oracle@@QBE?BV?$basic_string@DU?$char_traits@D@std@@V?$allocator@D@2@@std@@XZ
?getValidAttrType@MetaData@occi@oracle@@ABE?AW4ociAttrType@123@HH@Z
?getVector@MetaData@occi@oracle@@QBE?AV?$vector@VMetaData@occi@oracle@@V?$allocator@VMetaData@occi@oracle@@@std@@@std@@W4AttrId@123@@Z
?getVector@occi@oracle@@YAXABVAnyData@12@AAV?$vector@UBDouble@occi@oracle@@V?$allocator@UBDouble@occi@oracle@@@std@@@std@@@Z
?getVector@occi@oracle@@YAXABVAnyData@12@AAV?$vector@UBFloat@occi@oracle@@V?$allocator@UBFloat@occi@oracle@@@std@@@std@@@Z
?getVector@occi@oracle@@YAXABVAnyData@12@AAV?$vector@V?$basic_string@DU?$char_traits@D@std@@V?$allocator@D@2@@std@@V?$allocator@V?$basic_string@DU?$char_traits@D@std@@V?$allocator@D@2@@std@@@2@@std@@@Z
?getVector@occi@oracle@@YAXABVAnyData@12@AAV?$vector@V?$basic_string@GU?$char_traits@G@std@@V?$allocator@G@2@@std@@V?$allocator@V?$basic_string@GU?$char_traits@G@std@@V?$allocator@G@2@@std@@@2@@std@@@Z
?getVector@occi@oracle@@YAXABVAnyData@12@AAV?$vector@VBfile@occi@oracle@@V?$allocator@VBfile@occi@oracle@@@std@@@std@@@Z
?getVector@occi@oracle@@YAXABVAnyData@12@AAV?$vector@VBlob@occi@oracle@@V?$allocator@VBlob@occi@oracle@@@std@@@std@@@Z
?getVector@occi@oracle@@YAXABVAnyData@12@AAV?$vector@VBytes@occi@oracle@@V?$allocator@VBytes@occi@oracle@@@std@@@std@@@Z
?getVector@occi@oracle@@YAXABVAnyData@12@AAV?$vector@VClob@occi@oracle@@V?$allocator@VClob@occi@oracle@@@std@@@std@@@Z
?getVector@occi@oracle@@YAXABVAnyData@12@AAV?$vector@VDate@occi@oracle@@V?$allocator@VDate@occi@oracle@@@std@@@std@@@Z
?getVector@occi@oracle@@YAXABVAnyData@12@AAV?$vector@VIntervalDS@occi@oracle@@V?$allocator@VIntervalDS@occi@oracle@@@std@@@std@@@Z
?getVector@occi@oracle@@YAXABVAnyData@12@AAV?$vector@VIntervalYM@occi@oracle@@V?$allocator@VIntervalYM@occi@oracle@@@std@@@std@@@Z
?getVector@occi@oracle@@YAXABVAnyData@12@AAV?$vector@VNumber@occi@oracle@@V?$allocator@VNumber@occi@oracle@@@std@@@std@@@Z
?getVector@occi@oracle@@YAXABVAnyData@12@AAV?$vector@VTimestamp@occi@oracle@@V?$allocator@VTimestamp@occi@oracle@@@std@@@std@@@Z
?getVector@occi@oracle@@YAXPAVResultSet@12@IAAV?$vector@HV?$allocator@H@std@@@std@@@Z
?getVector@occi@oracle@@YAXPAVResultSet@12@IAAV?$vector@IV?$allocator@I@std@@@std@@@Z
?getVector@occi@oracle@@YAXPAVResultSet@12@IAAV?$vector@MV?$allocator@M@std@@@std@@@Z
?getVector@occi@oracle@@YAXPAVResultSet@12@IAAV?$vector@NV?$allocator@N@std@@@std@@@Z
?getVector@occi@oracle@@YAXPAVResultSet@12@IAAV?$vector@UBDouble@occi@oracle@@V?$allocator@UBDouble@occi@oracle@@@std@@@std@@@Z
?getVector@occi@oracle@@YAXPAVResultSet@12@IAAV?$vector@UBFloat@occi@oracle@@V?$allocator@UBFloat@occi@oracle@@@std@@@std@@@Z
?getVector@occi@oracle@@YAXPAVResultSet@12@IAAV?$vector@V?$basic_string@DU?$char_traits@D@std@@V?$allocator@D@2@@std@@V?$allocator@V?$basic_string@DU?$char_traits@D@std@@V?$allocator@D@2@@std@@@2@@std@@@Z
?getVector@occi@oracle@@YAXPAVResultSet@12@IAAV?$vector@V?$basic_string@GU?$char_traits@G@std@@V?$allocator@G@2@@std@@V?$allocator@V?$basic_string@GU?$char_traits@G@std@@V?$allocator@G@2@@std@@@2@@std@@@Z
?getVector@occi@oracle@@YAXPAVResultSet@12@IAAV?$vector@VBfile@occi@oracle@@V?$allocator@VBfile@occi@oracle@@@std@@@std@@@Z
?getVector@occi@oracle@@YAXPAVResultSet@12@IAAV?$vector@VBlob@occi@oracle@@V?$allocator@VBlob@occi@oracle@@@std@@@std@@@Z
?getVector@occi@oracle@@YAXPAVResultSet@12@IAAV?$vector@VClob@occi@oracle@@V?$allocator@VClob@occi@oracle@@@std@@@std@@@Z
?getVector@occi@oracle@@YAXPAVResultSet@12@IAAV?$vector@VDate@occi@oracle@@V?$allocator@VDate@occi@oracle@@@std@@@std@@@Z
?getVector@occi@oracle@@YAXPAVResultSet@12@IAAV?$vector@VIntervalDS@occi@oracle@@V?$allocator@VIntervalDS@occi@oracle@@@std@@@std@@@Z
?getVector@occi@oracle@@YAXPAVResultSet@12@IAAV?$vector@VIntervalYM@occi@oracle@@V?$allocator@VIntervalYM@occi@oracle@@@std@@@std@@@Z
?getVector@occi@oracle@@YAXPAVResultSet@12@IAAV?$vector@VNumber@occi@oracle@@V?$allocator@VNumber@occi@oracle@@@std@@@std@@@Z
?getVector@occi@oracle@@YAXPAVResultSet@12@IAAV?$vector@VRefAny@occi@oracle@@V?$allocator@VRefAny@occi@oracle@@@std@@@std@@@Z
?getVector@occi@oracle@@YAXPAVResultSet@12@IAAV?$vector@VTimestamp@occi@oracle@@V?$allocator@VTimestamp@occi@oracle@@@std@@@std@@@Z
?getVector@occi@oracle@@YAXPAVStatement@12@IAAV?$vector@HV?$allocator@H@std@@@std@@@Z
?getVector@occi@oracle@@YAXPAVStatement@12@IAAV?$vector@IV?$allocator@I@std@@@std@@@Z
?getVector@occi@oracle@@YAXPAVStatement@12@IAAV?$vector@MV?$allocator@M@std@@@std@@@Z
?getVector@occi@oracle@@YAXPAVStatement@12@IAAV?$vector@NV?$allocator@N@std@@@std@@@Z
?getVector@occi@oracle@@YAXPAVStatement@12@IAAV?$vector@UBDouble@occi@oracle@@V?$allocator@UBDouble@occi@oracle@@@std@@@std@@@Z
?getVector@occi@oracle@@YAXPAVStatement@12@IAAV?$vector@UBFloat@occi@oracle@@V?$allocator@UBFloat@occi@oracle@@@std@@@std@@@Z
?getVector@occi@oracle@@YAXPAVStatement@12@IAAV?$vector@V?$basic_string@DU?$char_traits@D@std@@V?$allocator@D@2@@std@@V?$allocator@V?$basic_string@DU?$char_traits@D@std@@V?$allocator@D@2@@std@@@2@@std@@@Z
?getVector@occi@oracle@@YAXPAVStatement@12@IAAV?$vector@V?$basic_string@GU?$char_traits@G@std@@V?$allocator@G@2@@std@@V?$allocator@V?$basic_string@GU?$char_traits@G@std@@V?$allocator@G@2@@std@@@2@@std@@@Z
?getVector@occi@oracle@@YAXPAVStatement@12@IAAV?$vector@VBfile@occi@oracle@@V?$allocator@VBfile@occi@oracle@@@std@@@std@@@Z
?getVector@occi@oracle@@YAXPAVStatement@12@IAAV?$vector@VBlob@occi@oracle@@V?$allocator@VBlob@occi@oracle@@@std@@@std@@@Z
?getVector@occi@oracle@@YAXPAVStatement@12@IAAV?$vector@VClob@occi@oracle@@V?$allocator@VClob@occi@oracle@@@std@@@std@@@Z
?getVector@occi@oracle@@YAXPAVStatement@12@IAAV?$vector@VDate@occi@oracle@@V?$allocator@VDate@occi@oracle@@@std@@@std@@@Z
?getVector@occi@oracle@@YAXPAVStatement@12@IAAV?$vector@VIntervalDS@occi@oracle@@V?$allocator@VIntervalDS@occi@oracle@@@std@@@std@@@Z
?getVector@occi@oracle@@YAXPAVStatement@12@IAAV?$vector@VIntervalYM@occi@oracle@@V?$allocator@VIntervalYM@occi@oracle@@@std@@@std@@@Z
?getVector@occi@oracle@@YAXPAVStatement@12@IAAV?$vector@VNumber@occi@oracle@@V?$allocator@VNumber@occi@oracle@@@std@@@std@@@Z
?getVector@occi@oracle@@YAXPAVStatement@12@IAAV?$vector@VRefAny@occi@oracle@@V?$allocator@VRefAny@occi@oracle@@@std@@@std@@@Z
?getVector@occi@oracle@@YAXPAVStatement@12@IAAV?$vector@VTimestamp@occi@oracle@@V?$allocator@VTimestamp@occi@oracle@@@std@@@std@@@Z
?getVectorOfOCIRefs@occi@oracle@@YAXABVAnyData@12@AAV?$vector@PAXV?$allocator@PAX@std@@@std@@@Z
?getVectorOfOCIRefs@occi@oracle@@YAXPAVResultSet@12@IAAV?$vector@PAXV?$allocator@PAX@std@@@std@@@Z
?getVectorOfOCIRefs@occi@oracle@@YAXPAVStatement@12@IAAV?$vector@PAXV?$allocator@PAX@std@@@std@@@Z
?getVectorOfPObjects@occi@oracle@@YAXABVAnyData@12@AAV?$vector@PAVPObject@occi@oracle@@V?$allocator@PAVPObject@occi@oracle@@@std@@@std@@P6APAXPAX@Z@Z
?getVectorOfPObjects@occi@oracle@@YAXPAVResultSet@12@IAAV?$vector@PAVPObject@occi@oracle@@V?$allocator@PAVPObject@occi@oracle@@@std@@@std@@@Z
?getVectorOfPObjects@occi@oracle@@YAXPAVStatement@12@IAAV?$vector@PAVPObject@occi@oracle@@V?$allocator@PAVPObject@occi@oracle@@@std@@@std@@@Z
?getVisibility@Consumer@aq@occi@oracle@@QBE?AW4Visibility@1234@XZ
?getVisibility@ConsumerImpl@aq@occi@oracle@@QBE?AW4Visibility@Consumer@234@XZ
?getVisibility@Producer@aq@occi@oracle@@QBE?AW4Visibility@1234@XZ
?getVisibility@ProducerImpl@aq@occi@oracle@@QBE?AW4Visibility@Producer@234@XZ
?getWaitTime@Consumer@aq@occi@oracle@@QBEIXZ
?getWaitTime@ConsumerImpl@aq@occi@oracle@@QBEIXZ
?getWriteSQL@MapImpl@occi@oracle@@UBEXPAXI0IPAPAX@Z
?getXAConnection@EnvironmentImpl@occi@oracle@@UAEPAVConnection@23@ABV?$basic_string@DU?$char_traits@D@std@@V?$allocator@D@2@@std@@@Z
?getXAEnvironment@Environment@occi@oracle@@SAPAV123@ABV?$basic_string@DU?$char_traits@D@std@@V?$allocator@D@2@@std@@@Z
?getXAErrorCode@SQLException@occi@oracle@@UBEHABV?$basic_string@DU?$char_traits@D@std@@V?$allocator@D@2@@std@@@Z
?getXAErrorCode@SQLExceptionImpl@occi@oracle@@QBEHABV?$basic_string@DU?$char_traits@D@std@@V?$allocator@D@2@@std@@@Z
?getYear@IntervalYM@occi@oracle@@QBEHXZ
?hypCos@Number@occi@oracle@@QBE?BV123@XZ
?hypSin@Number@occi@oracle@@QBE?BV123@XZ
?hypTan@Number@occi@oracle@@QBE?BV123@XZ
?initParamVec@StatementImpl@occi@oracle@@QAEXI@Z
?initialise@ConnectionPoolImpl@occi@oracle@@AAEXPAVEnvironmentImpl@23@PAXI1I1IIII@Z
?initialise@PObject@occi@oracle@@CAXPAXPBVConnection@23@0I0I0I0I@Z
?initialise@StatelessConnectionPoolImpl@occi@oracle@@AAEXPAVEnvironmentImpl@23@PAXI1I1IIIIW4PoolType@StatelessConnectionPool@23@@Z
?initialiseState@StatementImpl@occi@oracle@@AAEXXZ
?intPower@Number@occi@oracle@@QBE?BV123@H@Z
?intervalAdd@Timestamp@occi@oracle@@QBE?BV123@ABVIntervalDS@23@@Z
?intervalAdd@Timestamp@occi@oracle@@QBE?BV123@ABVIntervalYM@23@@Z
?intervalSub@Timestamp@occi@oracle@@QBE?BV123@ABVIntervalDS@23@@Z
?intervalSub@Timestamp@occi@oracle@@QBE?BV123@ABVIntervalYM@23@@Z
?invalidateLob@LobStreamImpl@occi@oracle@@QAEXXZ
?isCached@ConnectionImpl@occi@oracle@@UAE_NABV?$basic_string@DU?$char_traits@D@std@@V?$allocator@D@2@@std@@0@Z
?isCached@ConnectionImpl@occi@oracle@@UAE_NABV?$basic_string@GU?$char_traits@G@std@@V?$allocator@G@2@@std@@0@Z
?isClear@RefImpl@occi@oracle@@QBE_NXZ
?isEqual@RefImpl@occi@oracle@@QAE_NPAVPObject@23@@Z
?isInitialized@Bfile@occi@oracle@@QBE_NXZ
?isInitialized@Blob@occi@oracle@@QBE_NXZ
?isInitialized@Clob@occi@oracle@@QBE_NXZ
?isInvalidAttrId@MetaData@occi@oracle@@ABEHW4AttrId@123@PAH1@Z
?isListTypeAttribute@MetaData@occi@oracle@@ABE_NW4AttrId@123@E@Z
?isLocked@PObject@occi@oracle@@QBE_NXZ
?isNull@Agent@aq@occi@oracle@@QBE_NXZ
?isNull@AgentImpl@aq@occi@oracle@@QBE_NXZ
?isNull@AnyData@occi@oracle@@QBE_NXZ
?isNull@AnyDataImpl@occi@oracle@@QBE_NXZ
?isNull@Bfile@occi@oracle@@QBE_NXZ
?isNull@Blob@occi@oracle@@QBE_NXZ
?isNull@Bytes@occi@oracle@@QBE_NXZ
?isNull@Clob@occi@oracle@@QBE_NXZ
?isNull@Consumer@aq@occi@oracle@@QBE_NXZ
?isNull@ConsumerImpl@aq@occi@oracle@@QBE_NXZ
?isNull@Date@occi@oracle@@QBE_NXZ
?isNull@IntervalDS@occi@oracle@@QBE_NXZ
?isNull@IntervalYM@occi@oracle@@QBE_NXZ
?isNull@Message@aq@occi@oracle@@QBE_NXZ
?isNull@MessageImpl@aq@occi@oracle@@QBE_NXZ
?isNull@Number@occi@oracle@@QBE_NXZ
?isNull@PObject@occi@oracle@@QBE_NXZ
?isNull@Producer@aq@occi@oracle@@QBE_NXZ
?isNull@ProducerImpl@aq@occi@oracle@@QBE_NXZ
?isNull@RefAny@occi@oracle@@QBE_NXZ
?isNull@RefImpl@occi@oracle@@QBE_NXZ
?isNull@ResultSetImpl@occi@oracle@@UBE_NI@Z
?isNull@StatementImpl@occi@oracle@@UBE_NI@Z
?isNull@Subscription@aq@occi@oracle@@QBE_NXZ
?isNull@SubscriptionImpl@aq@occi@oracle@@QBE_NXZ
?isNull@Timestamp@occi@oracle@@QBE_NXZ
?isOpen@Bfile@occi@oracle@@QBE_NXZ
?isOpen@Blob@occi@oracle@@QBE_NXZ
?isOpen@Clob@occi@oracle@@QBE_NXZ
?isRegistered@MapImpl@occi@oracle@@QBE_NABUSchemaType@23@@Z
?isSessionMetaData@MetaDataImpl@occi@oracle@@QBE_NXZ
?isTruncated@ResultSetImpl@occi@oracle@@UBE_NI@Z
?isTruncated@StatementImpl@occi@oracle@@UBE_NI@Z
?lastDay@Date@occi@oracle@@QBE?AV123@XZ
?length@Bfile@occi@oracle@@QBEIXZ
?length@Blob@occi@oracle@@QBEIXZ
?length@Bytes@occi@oracle@@QBEIXZ
?length@BytesImpl@occi@oracle@@QBEIXZ
?length@Clob@occi@oracle@@QBEIXZ
?listen@Listener@aq@occi@oracle@@QAE?AVAgent@234@XZ
?ln@Number@occi@oracle@@QBE?BV123@XZ
?lnxErrorCheck@occi@oracle@@YAXH@Z
?lock@PObject@occi@oracle@@QAEXW4LockOption@123@@Z
?log@Number@occi@oracle@@QBE?BV123@ABV123@@Z
?markDelete@PObject@occi@oracle@@QAEXXZ
?markDelete@RefAny@occi@oracle@@QAEXXZ
?markDelete@RefImpl@occi@oracle@@QAEXXZ
?markModified@PObject@occi@oracle@@QAEXXZ
?newRef@RefCounted@occi@oracle@@QBEPBV123@XZ
?next@ResultSetImpl@occi@oracle@@UAE?AW4Status@ResultSet@23@I@Z
?nextDay@Date@occi@oracle@@QBE?AV123@ABV?$basic_string@DU?$char_traits@D@std@@V?$allocator@D@2@@std@@@Z
?nextDay@Date@occi@oracle@@QBE?AV123@ABV?$basic_string@GU?$char_traits@G@std@@V?$allocator@G@2@@std@@@Z
?onZeroReferences@RefCounted@occi@oracle@@AAEXXZ
?open@Bfile@occi@oracle@@QAEXXZ
?open@Blob@occi@oracle@@QAEXW4LobOpenMode@23@@Z
?open@Clob@occi@oracle@@QAEXW4LobOpenMode@23@@Z
?pin@PObject@occi@oracle@@QAEXXZ
?pin@RefImpl@occi@oracle@@QAEPAVPObject@23@XZ
?pinAndCacheTDO@MapImpl@occi@oracle@@QAEPAUOCIType@@PBVConnectionImpl@23@ABUSchemaType@23@@Z
?pinTDOs@MapImpl@occi@oracle@@QAEXPAVConnectionImpl@23@@Z
?pinVectorOfOCIRefs@occi@oracle@@YAXPBVConnection@12@AAV?$vector@PAXV?$allocator@PAX@std@@@std@@1AAV?$vector@PAVPObject@occi@oracle@@V?$allocator@PAVPObject@occi@oracle@@@std@@@5@AAW4LockOptions@12@@Z
?postToSubscriptions@ConnectionImpl@occi@oracle@@UAEXABV?$vector@VSubscription@aq@occi@oracle@@V?$allocator@VSubscription@aq@occi@oracle@@@std@@@std@@@Z
?power@Number@occi@oracle@@QBE?BV123@ABV123@@Z
?preTruncationLength@ResultSetImpl@occi@oracle@@UBEHI@Z
?preTruncationLength@StatementImpl@occi@oracle@@UBEHI@Z
?prec@Number@occi@oracle@@QBE?BV123@H@Z
?put@MapImpl@occi@oracle@@UAEXABV?$basic_string@DU?$char_traits@D@std@@V?$allocator@D@2@@std@@0P6APAXPAX@ZP6AX11@Z@Z
?put@MapImpl@occi@oracle@@UAEXABV?$basic_string@DU?$char_traits@D@std@@V?$allocator@D@2@@std@@P6APAXPAX@ZP6AX11@Z@Z
?putUTF16@MapImpl@occi@oracle@@UAEXABV?$basic_string@DU?$char_traits@D@std@@V?$allocator@D@2@@std@@0P6APAXPAX@ZP6AX11@Z@Z
?read@Bfile@occi@oracle@@QBEIIPAEII@Z
?read@Blob@occi@oracle@@QBEIIPAEII@Z
?read@Clob@occi@oracle@@QBEIIPAEII@Z
?read@Clob@occi@oracle@@QBEIIPAGII@Z
?readBuffer@LobStreamImpl@occi@oracle@@UAEHPADI@Z
?readBuffer@RsStreamImpl@occi@oracle@@UAEHPADI@Z
?readBuffer@StmtStreamImpl@occi@oracle@@UAEHPADI@Z
?readCurrentStreamBuffer@ResultSetImpl@occi@oracle@@UAEHPADHEI@Z
?readCurrentStreamBuffer@StatementImpl@occi@oracle@@UAEHPADIEI@Z
?readLastBuffer@LobStreamImpl@occi@oracle@@UAEHPADI@Z
?readLastBuffer@RsStreamImpl@occi@oracle@@UAEHPADI@Z
?readLastBuffer@StmtStreamImpl@occi@oracle@@UAEHPADI@Z
?readVectorOfBfiles@occi@oracle@@YAXPBVConnection@12@AAV?$vector@VBfile@occi@oracle@@V?$allocator@VBfile@occi@oracle@@@std@@@std@@PA_K2QAPAE2@Z
?readVectorOfBlobs@occi@oracle@@YAXPBVConnection@12@AAV?$vector@VBlob@occi@oracle@@V?$allocator@VBlob@occi@oracle@@@std@@@std@@PA_K2QAPAE2@Z
?readVectorOfClobs@occi@oracle@@YAXPBVConnection@12@AAV?$vector@VClob@occi@oracle@@V?$allocator@VClob@occi@oracle@@@std@@@std@@PA_K22QAPAE2@Z
?readVectorOfClobs@occi@oracle@@YAXPBVConnection@12@AAV?$vector@VClob@occi@oracle@@V?$allocator@VClob@occi@oracle@@@std@@@std@@PA_K22QAPAG2@Z
?receive@Consumer@aq@occi@oracle@@QAE?AVMessage@234@W4PayloadType@5234@ABV?$basic_string@DU?$char_traits@D@std@@V?$allocator@D@2@@std@@1@Z
?receive@ConsumerImpl@aq@occi@oracle@@QAE?AVMessage@234@W4PayloadType@5234@ABV?$basic_string@DU?$char_traits@D@std@@V?$allocator@D@2@@std@@1@Z
?refresh@PObject@occi@oracle@@SAXPAX@Z
?registerOutParam@StatementImpl@occi@oracle@@UAEXIW4Type@23@IABV?$basic_string@DU?$char_traits@D@std@@V?$allocator@D@2@@std@@1@Z
?registerOutParam@StatementImpl@occi@oracle@@UAEXIW4Type@23@IABV?$basic_string@DU?$char_traits@D@std@@V?$allocator@D@2@@std@@@Z
?registerOutParam@StatementImpl@occi@oracle@@UAEXIW4Type@23@IABV?$basic_string@GU?$char_traits@G@std@@V?$allocator@G@2@@std@@1@Z
?registerSubscriptions@ConnectionImpl@occi@oracle@@UAEXABV?$vector@VSubscription@aq@occi@oracle@@V?$allocator@VSubscription@aq@occi@oracle@@@std@@@std@@@Z
?registerSubscriptions@EnvironmentImpl@occi@oracle@@UAEXABV?$vector@VSubscription@aq@occi@oracle@@V?$allocator@VSubscription@aq@occi@oracle@@@std@@@std@@@Z
?releaseConnection@StatelessConnectionPoolImpl@occi@oracle@@UAEXPAVConnection@23@ABV?$basic_string@DU?$char_traits@D@std@@V?$allocator@D@2@@std@@@Z
?releaseConnection@StatelessConnectionPoolImpl@occi@oracle@@UAEXPAVConnection@23@ABV?$basic_string@GU?$char_traits@G@std@@V?$allocator@G@2@@std@@@Z
?releaseXAConnection@EnvironmentImpl@occi@oracle@@UAEXPAVConnection@23@@Z
?releaseXAEnvironment@Environment@occi@oracle@@SAXPAV123@@Z
?rollback@ConnectionImpl@occi@oracle@@UAEXXZ
?round@Number@occi@oracle@@QBE?BV123@H@Z
?send@Producer@aq@occi@oracle@@QAE?AVBytes@34@AAVMessage@234@@Z
?send@Producer@aq@occi@oracle@@QAE?AVBytes@34@AAVMessage@234@ABV?$basic_string@DU?$char_traits@D@std@@V?$allocator@D@2@@std@@@Z
?send@ProducerImpl@aq@occi@oracle@@QAE?AVBytes@34@AAVMessage@234@@Z
?send@ProducerImpl@aq@occi@oracle@@QAE?AVBytes@34@AAVMessage@234@ABV?$basic_string@DU?$char_traits@D@std@@V?$allocator@D@2@@std@@@Z
?set@IntervalDS@occi@oracle@@QAEXHHHHH@Z
?set@IntervalYM@occi@oracle@@QAEXHH@Z
?setAddress@Agent@aq@occi@oracle@@QAEXABV?$basic_string@DU?$char_traits@D@std@@V?$allocator@D@2@@std@@@Z
?setAddress@AgentImpl@aq@occi@oracle@@QAEXABV?$basic_string@DU?$char_traits@D@std@@V?$allocator@D@2@@std@@@Z
?setAgent@Consumer@aq@occi@oracle@@QAEXABVAgent@234@@Z
?setAgent@ConsumerImpl@aq@occi@oracle@@QAEXABVAgent@234@@Z
?setAgentList@Listener@aq@occi@oracle@@QAEXAAV?$vector@VAgent@aq@occi@oracle@@V?$allocator@VAgent@aq@occi@oracle@@@std@@@std@@@Z
?setAnyData@Message@aq@occi@oracle@@QAEXABVAnyData@34@@Z
?setAnyData@MessageImpl@aq@occi@oracle@@QAEXABVAnyData@34@@Z
?setAutoCommit@StatementImpl@occi@oracle@@UAEX_N@Z
?setBDouble@AnyData@occi@oracle@@QAEXABUBDouble@23@@Z
?setBDouble@AnyDataImpl@occi@oracle@@QAEXABUBDouble@23@@Z
?setBDouble@StatementImpl@occi@oracle@@UAEXIABUBDouble@23@@Z
?setBFloat@AnyData@occi@oracle@@QAEXABUBFloat@23@@Z
?setBFloat@AnyDataImpl@occi@oracle@@QAEXABUBFloat@23@@Z
?setBFloat@StatementImpl@occi@oracle@@UAEXIABUBFloat@23@@Z
?setBatchErrorMode@StatementImpl@occi@oracle@@UAEX_N@Z
?setBfile@AnyData@occi@oracle@@QAEXABVBfile@23@@Z
?setBfile@AnyDataImpl@occi@oracle@@QAEXABVBfile@23@@Z
?setBfile@StatementImpl@occi@oracle@@UAEXIABVBfile@23@@Z
?setBinaryStreamMode@ResultSetImpl@occi@oracle@@UAEXII@Z
?setBinaryStreamMode@StatementImpl@occi@oracle@@UAEXII@Z
?setBinaryStreamMode@StatementImpl@occi@oracle@@UAEXII_N@Z
?setBlob@AnyData@occi@oracle@@QAEXABVBlob@23@@Z
?setBlob@AnyDataImpl@occi@oracle@@QAEXABVBlob@23@@Z
?setBlob@StatementImpl@occi@oracle@@UAEXIABVBlob@23@@Z
?setBusyOption@StatelessConnectionPoolImpl@occi@oracle@@UAEXW4BusyOption@StatelessConnectionPool@23@@Z
?setBytes@AnyData@occi@oracle@@QAEXABVBytes@23@@Z
?setBytes@AnyDataImpl@occi@oracle@@QAEXABVBytes@23@@Z
?setBytes@Message@aq@occi@oracle@@QAEXABVBytes@34@@Z
?setBytes@MessageImpl@aq@occi@oracle@@QAEXABVBytes@34@@Z
?setBytes@StatementImpl@occi@oracle@@UAEXIABVBytes@23@@Z
?setCacheMaxSize@EnvironmentImpl@occi@oracle@@UAEXI@Z
?setCacheOptSize@EnvironmentImpl@occi@oracle@@UAEXI@Z
?setCacheSortedFlush@EnvironmentImpl@occi@oracle@@UAEX_N@Z
?setCallbackContext@Subscription@aq@occi@oracle@@QAEXPAX@Z
?setCallbackContext@SubscriptionImpl@aq@occi@oracle@@QAEXPAX@Z
?setCharSet@ResultSetImpl@occi@oracle@@UAEXIABV?$basic_string@DU?$char_traits@D@std@@V?$allocator@D@2@@std@@@Z
?setCharSet@StatementImpl@occi@oracle@@UAEXIABV?$basic_string@DU?$char_traits@D@std@@V?$allocator@D@2@@std@@@Z
?setCharSetForm@Clob@occi@oracle@@QAEXW4CharSetForm@23@@Z
?setCharSetId@Clob@occi@oracle@@QAEXABV?$basic_string@DU?$char_traits@D@std@@V?$allocator@D@2@@std@@@Z
?setCharSetIdUString@Clob@occi@oracle@@QAEXABV?$basic_string@GU?$char_traits@G@std@@V?$allocator@G@2@@std@@@Z
?setCharSetUString@ResultSetImpl@occi@oracle@@UAEXIABV?$basic_string@GU?$char_traits@G@std@@V?$allocator@G@2@@std@@@Z
?setCharSetUString@StatementImpl@occi@oracle@@UAEXIABV?$basic_string@GU?$char_traits@G@std@@V?$allocator@G@2@@std@@@Z
?setCharacterStreamMode@ResultSetImpl@occi@oracle@@UAEXII@Z
?setCharacterStreamMode@StatementImpl@occi@oracle@@UAEXII@Z
?setCharacterStreamMode@StatementImpl@occi@oracle@@UAEXII_N@Z
?setClob@AnyData@occi@oracle@@QAEXABVClob@23@@Z
?setClob@AnyDataImpl@occi@oracle@@QAEXABVClob@23@@Z
?setClob@StatementImpl@occi@oracle@@UAEXIABVClob@23@@Z
?setConsumerName@Consumer@aq@occi@oracle@@QAEXABV?$basic_string@DU?$char_traits@D@std@@V?$allocator@D@2@@std@@@Z
?setConsumerName@ConsumerImpl@aq@occi@oracle@@QAEXABV?$basic_string@DU?$char_traits@D@std@@V?$allocator@D@2@@std@@@Z
?setContentType@Blob@occi@oracle@@QAEXV?$basic_string@DU?$char_traits@D@std@@V?$allocator@D@2@@std@@@Z
?setContentType@Clob@occi@oracle@@QAEXV?$basic_string@DU?$char_traits@D@std@@V?$allocator@D@2@@std@@@Z
?setCorrelationId@Consumer@aq@occi@oracle@@QAEXABV?$basic_string@DU?$char_traits@D@std@@V?$allocator@D@2@@std@@@Z
?setCorrelationId@ConsumerImpl@aq@occi@oracle@@QAEXABV?$basic_string@DU?$char_traits@D@std@@V?$allocator@D@2@@std@@@Z
?setCorrelationId@Message@aq@occi@oracle@@QAEXABV?$basic_string@DU?$char_traits@D@std@@V?$allocator@D@2@@std@@@Z
?setCorrelationId@MessageImpl@aq@occi@oracle@@QAEXABV?$basic_string@DU?$char_traits@D@std@@V?$allocator@D@2@@std@@@Z
?setDataBuffer@ResultSetImpl@occi@oracle@@UAEXIPAXW4Type@23@HPAGPAF2@Z
?setDataBuffer@StatementImpl@occi@oracle@@UAEXIPAXW4Type@23@HPAGPAF2@Z
?setDataBufferArray@StatementImpl@occi@oracle@@UAEXIPAXW4Type@23@IPAIHPAGPAF3@Z
?setDatabaseNCHARParam@ResultSetImpl@occi@oracle@@UAEXI_N@Z
?setDatabaseNCHARParam@StatementImpl@occi@oracle@@UAEXI_N@Z
?setDatabaseServerNames@Subscription@aq@occi@oracle@@QAEXABV?$vector@V?$basic_string@DU?$char_traits@D@std@@V?$allocator@D@2@@std@@V?$allocator@V?$basic_string@DU?$char_traits@D@std@@V?$allocator@D@2@@std@@@2@@std@@@Z
?setDatabaseServerNames@SubscriptionImpl@aq@occi@oracle@@QAEXABV?$vector@V?$basic_string@DU?$char_traits@D@std@@V?$allocator@D@2@@std@@V?$allocator@V?$basic_string@DU?$char_traits@D@std@@V?$allocator@D@2@@std@@@2@@std@@@Z
?setDate@AnyData@occi@oracle@@QAEXABVDate@23@@Z
?setDate@AnyDataImpl@occi@oracle@@QAEXABVDate@23@@Z
?setDate@Date@occi@oracle@@QAEXHIIIII@Z
?setDate@StatementImpl@occi@oracle@@UAEXIABVDate@23@@Z
?setDate@Timestamp@occi@oracle@@QAEXHII@Z
?setDelay@Message@aq@occi@oracle@@QAEXH@Z
?setDelay@MessageImpl@aq@occi@oracle@@QAEXH@Z
?setDequeueMode@Consumer@aq@occi@oracle@@QAEXW4DequeueMode@1234@@Z
?setDequeueMode@ConsumerImpl@aq@occi@oracle@@QAEXW4DequeueMode@Consumer@234@@Z
?setDouble@StatementImpl@occi@oracle@@UAEXIN@Z
?setEmpty@Blob@occi@oracle@@QAEXPBVConnection@23@@Z
?setEmpty@Blob@occi@oracle@@QAEXXZ
?setEmpty@Clob@occi@oracle@@QAEXPBVConnection@23@@Z
?setEmpty@Clob@occi@oracle@@QAEXXZ
?setErrorCtx@SQLException@occi@oracle@@UAEXPAX@Z
?setErrorCtx@SQLExceptionImpl@occi@oracle@@QAEXPAX@Z
?setErrorOnBusy@ConnectionPoolImpl@occi@oracle@@UAEXXZ
?setErrorOnNull@ResultSetImpl@occi@oracle@@UAEXI_N@Z
?setErrorOnNull@StatementImpl@occi@oracle@@UAEXI_N@Z
?setErrorOnTruncate@ResultSetImpl@occi@oracle@@UAEXI_N@Z
?setErrorOnTruncate@StatementImpl@occi@oracle@@UAEXI_N@Z
?setExceptionQueueName@Message@aq@occi@oracle@@QAEXABV?$basic_string@DU?$char_traits@D@std@@V?$allocator@D@2@@std@@@Z
?setExceptionQueueName@MessageImpl@aq@occi@oracle@@QAEXABV?$basic_string@DU?$char_traits@D@std@@V?$allocator@D@2@@std@@@Z
?setExpiration@Message@aq@occi@oracle@@QAEXH@Z
?setExpiration@MessageImpl@aq@occi@oracle@@QAEXH@Z
?setFloat@StatementImpl@occi@oracle@@UAEXIM@Z
?setFromBDouble@AnyData@occi@oracle@@QAEXABUBDouble@23@@Z
?setFromBDouble@AnyDataImpl@occi@oracle@@QAEXABUBDouble@23@@Z
?setFromBFloat@AnyData@occi@oracle@@QAEXABUBFloat@23@@Z
?setFromBFloat@AnyDataImpl@occi@oracle@@QAEXABUBFloat@23@@Z
?setFromBfile@AnyData@occi@oracle@@QAEXABVBfile@23@@Z
?setFromBfile@AnyDataImpl@occi@oracle@@QAEXABVBfile@23@@Z
?setFromBytes@AnyData@occi@oracle@@QAEXABVBytes@23@@Z
?setFromBytes@AnyDataImpl@occi@oracle@@QAEXABVBytes@23@@Z
?setFromDate@AnyData@occi@oracle@@QAEXABVDate@23@@Z
?setFromDate@AnyDataImpl@occi@oracle@@QAEXABVDate@23@@Z
?setFromIntervalDS@AnyData@occi@oracle@@QAEXABVIntervalDS@23@@Z
?setFromIntervalDS@AnyDataImpl@occi@oracle@@QAEXABVIntervalDS@23@@Z
?setFromIntervalYM@AnyData@occi@oracle@@QAEXABVIntervalYM@23@@Z
?setFromIntervalYM@AnyDataImpl@occi@oracle@@QAEXABVIntervalYM@23@@Z
?setFromNumber@AnyData@occi@oracle@@QAEXABVNumber@23@@Z
?setFromNumber@AnyDataImpl@occi@oracle@@QAEXABVNumber@23@@Z
?setFromObject@AnyData@occi@oracle@@QAEXPBVPObject@23@@Z
?setFromObject@AnyDataImpl@occi@oracle@@QAEXPBVPObject@23@@Z
?setFromRef@AnyData@occi@oracle@@QAEXABVRefAny@23@ABV?$basic_string@DU?$char_traits@D@std@@V?$allocator@D@2@@std@@1@Z
?setFromRef@AnyDataImpl@occi@oracle@@QAEXABVRefAny@23@ABV?$basic_string@DU?$char_traits@D@std@@V?$allocator@D@2@@std@@1@Z
?setFromString@AnyData@occi@oracle@@QAEXABV?$basic_string@DU?$char_traits@D@std@@V?$allocator@D@2@@std@@@Z
?setFromString@AnyDataImpl@occi@oracle@@QAEXABV?$basic_string@DU?$char_traits@D@std@@V?$allocator@D@2@@std@@@Z
?setFromTimestamp@AnyData@occi@oracle@@QAEXABVTimestamp@23@@Z
?setFromTimestamp@AnyDataImpl@occi@oracle@@QAEXABVTimestamp@23@@Z
?setInt@StatementImpl@occi@oracle@@UAEXIH@Z
?setIntervalDS@AnyData@occi@oracle@@QAEXABVIntervalDS@23@@Z
?setIntervalDS@AnyDataImpl@occi@oracle@@QAEXABVIntervalDS@23@@Z
?setIntervalDS@StatementImpl@occi@oracle@@UAEXIABVIntervalDS@23@@Z
?setIntervalYM@AnyData@occi@oracle@@QAEXABVIntervalYM@23@@Z
?setIntervalYM@AnyDataImpl@occi@oracle@@QAEXABVIntervalYM@23@@Z
?setIntervalYM@StatementImpl@occi@oracle@@UAEXIABVIntervalYM@23@@Z
?setLDAPAdminContext@EnvironmentImpl@occi@oracle@@UAEXABV?$basic_string@DU?$char_traits@D@std@@V?$allocator@D@2@@std@@@Z
?setLDAPAuthentication@EnvironmentImpl@occi@oracle@@UAEXI@Z
?setLDAPHostAndPort@EnvironmentImpl@occi@oracle@@UAEXABV?$basic_string@DU?$char_traits@D@std@@V?$allocator@D@2@@std@@I@Z
?setLDAPLoginNameAndPassword@EnvironmentImpl@occi@oracle@@UAEXABV?$basic_string@DU?$char_traits@D@std@@V?$allocator@D@2@@std@@0@Z
?setLock@RefImpl@occi@oracle@@QAEXW4LockOptions@23@@Z
?setMaxColumnSize@ResultSetImpl@occi@oracle@@UAEXII@Z
?setMaxIterations@StatementImpl@occi@oracle@@UAEXI@Z
?setMaxParamSize@StatementImpl@occi@oracle@@UAEXII@Z
?setMessageIdToDequeue@Consumer@aq@occi@oracle@@QAEXABVBytes@34@@Z
?setMessageIdToDequeue@ConsumerImpl@aq@occi@oracle@@QAEXABVBytes@34@@Z
?setNLSparams@occi@oracle@@YAPAUlxhnd@@PAU3@PAEIPAUlxglo@@0_N@Z
?setName@Agent@aq@occi@oracle@@QAEXABV?$basic_string@DU?$char_traits@D@std@@V?$allocator@D@2@@std@@@Z
?setName@AgentImpl@aq@occi@oracle@@QAEXABV?$basic_string@DU?$char_traits@D@std@@V?$allocator@D@2@@std@@@Z
?setName@Bfile@occi@oracle@@QAEXABV?$basic_string@DU?$char_traits@D@std@@V?$allocator@D@2@@std@@0@Z
?setName@Bfile@occi@oracle@@QAEXABV?$basic_string@GU?$char_traits@G@std@@V?$allocator@G@2@@std@@0@Z
?setNotifyCallback@Subscription@aq@occi@oracle@@QAEXP6AIAAV1234@PAVNotifyResult@234@@Z@Z
?setNotifyCallback@SubscriptionImpl@aq@occi@oracle@@QAEXPAVSubscription@234@P6AIAAV5234@PAVNotifyResult@234@@Z@Z
?setNull@Agent@aq@occi@oracle@@QAEXXZ
?setNull@AgentImpl@aq@occi@oracle@@QAEXXZ
?setNull@AnyData@occi@oracle@@QAEXXZ
?setNull@AnyDataImpl@occi@oracle@@QAEXXZ
?setNull@Bfile@occi@oracle@@QAEXXZ
?setNull@Blob@occi@oracle@@QAEXXZ
?setNull@Bytes@occi@oracle@@QAEXXZ
?setNull@Clob@occi@oracle@@QAEXXZ
?setNull@Consumer@aq@occi@oracle@@QAEXXZ
?setNull@ConsumerImpl@aq@occi@oracle@@QAEXXZ
?setNull@Date@occi@oracle@@QAEXXZ
?setNull@IntervalDS@occi@oracle@@QAEXXZ
?setNull@IntervalYM@occi@oracle@@QAEXXZ
?setNull@Message@aq@occi@oracle@@QAEXXZ
?setNull@MessageImpl@aq@occi@oracle@@QAEXXZ
?setNull@Number@occi@oracle@@QAEXXZ
?setNull@PObject@occi@oracle@@QAEXXZ
?setNull@Producer@aq@occi@oracle@@QAEXXZ
?setNull@ProducerImpl@aq@occi@oracle@@QAEXXZ
?setNull@RefImpl@occi@oracle@@QAEXXZ
?setNull@StatementImpl@occi@oracle@@UAEXIW4Type@23@@Z
?setNull@StatementImpl@occi@oracle@@UAEXIW4Type@23@AAV?$basic_string@GU?$char_traits@G@std@@V?$allocator@G@2@@std@@1@Z
?setNull@StatementImpl@occi@oracle@@UAEXIW4Type@23@ABV?$basic_string@DU?$char_traits@D@std@@V?$allocator@D@2@@std@@1@Z
?setNull@Subscription@aq@occi@oracle@@QAEXXZ
?setNull@SubscriptionImpl@aq@occi@oracle@@QAEXXZ
?setNull@Timestamp@occi@oracle@@QAEXXZ
?setNumber@AnyData@occi@oracle@@QAEXABVNumber@23@@Z
?setNumber@AnyDataImpl@occi@oracle@@QAEXABVNumber@23@@Z
?setNumber@StatementImpl@occi@oracle@@UAEXIABVNumber@23@@Z
?setObject@AnyData@occi@oracle@@QAEXPBVPObject@23@@Z
?setObject@AnyDataImpl@occi@oracle@@QAEXPBVPObject@23@@Z
?setObject@Message@aq@occi@oracle@@QAEXPAVPObject@34@@Z
?setObject@MessageImpl@aq@occi@oracle@@QAEXPAVPObject@34@@Z
?setObject@StatementImpl@occi@oracle@@UAEXIPAVPObject@23@@Z
?setOptions@Blob@occi@oracle@@QAEXW4LobOptionType@23@W4LobOptionValue@23@@Z
?setOptions@Clob@occi@oracle@@QAEXW4LobOptionType@23@W4LobOptionValue@23@@Z
?setOriginalMessageId@Message@aq@occi@oracle@@QAEXABVBytes@34@@Z
?setOriginalMessageId@MessageImpl@aq@occi@oracle@@QAEXABVBytes@34@@Z
?setPayload@Subscription@aq@occi@oracle@@QAEXABVBytes@34@@Z
?setPayload@SubscriptionImpl@aq@occi@oracle@@QAEXABVBytes@34@@Z
?setPinnedObject@RefImpl@occi@oracle@@QAEXPAVPObject@23@@Z
?setPoolSize@ConnectionPoolImpl@occi@oracle@@UAEXIII@Z
?setPoolSize@StatelessConnectionPoolImpl@occi@oracle@@UAEXIII@Z
?setPositionOfMessage@Consumer@aq@occi@oracle@@QAEXW4Navigation@1234@@Z
?setPositionOfMessage@ConsumerImpl@aq@occi@oracle@@QAEXW4Navigation@Consumer@234@@Z
?setPrefetch@RefImpl@occi@oracle@@QAEXABV?$basic_string@DU?$char_traits@D@std@@V?$allocator@D@2@@std@@0I@Z
?setPrefetch@RefImpl@occi@oracle@@QAEXABV?$basic_string@DU?$char_traits@D@std@@V?$allocator@D@2@@std@@I@Z
?setPrefetch@RefImpl@occi@oracle@@QAEXABV?$basic_string@GU?$char_traits@G@std@@V?$allocator@G@2@@std@@0I@Z
?setPrefetch@RefImpl@occi@oracle@@QAEXI@Z
?setPrefetchMemorySize@StatementImpl@occi@oracle@@UAEXI@Z
?setPrefetchRowCount@StatementImpl@occi@oracle@@UAEXI@Z
?setPresentation@Subscription@aq@occi@oracle@@QAEXW4Presentation@1234@@Z
?setPresentation@SubscriptionImpl@aq@occi@oracle@@QAEXW4Presentation@Subscription@234@@Z
?setPriority@Message@aq@occi@oracle@@QAEXH@Z
?setPriority@MessageImpl@aq@occi@oracle@@QAEXH@Z
?setProtocol@Agent@aq@occi@oracle@@QAEXI@Z
?setProtocol@AgentImpl@aq@occi@oracle@@QAEXI@Z
?setProtocol@Subscription@aq@occi@oracle@@QAEXW4Protocol@1234@@Z
?setProtocol@SubscriptionImpl@aq@occi@oracle@@QAEXW4Protocol@Subscription@234@@Z
?setQueueName@Consumer@aq@occi@oracle@@QAEXABV?$basic_string@DU?$char_traits@D@std@@V?$allocator@D@2@@std@@@Z
?setQueueName@ConsumerImpl@aq@occi@oracle@@QAEXABV?$basic_string@DU?$char_traits@D@std@@V?$allocator@D@2@@std@@@Z
?setQueueName@Producer@aq@occi@oracle@@QAEXABV?$basic_string@DU?$char_traits@D@std@@V?$allocator@D@2@@std@@@Z
?setQueueName@ProducerImpl@aq@occi@oracle@@QAEXABV?$basic_string@DU?$char_traits@D@std@@V?$allocator@D@2@@std@@@Z
?setRecipientList@Message@aq@occi@oracle@@QAEXAAV?$vector@VAgent@aq@occi@oracle@@V?$allocator@VAgent@aq@occi@oracle@@@std@@@std@@@Z
?setRecipientList@MessageImpl@aq@occi@oracle@@QAEXAAV?$vector@VAgent@aq@occi@oracle@@V?$allocator@VAgent@aq@occi@oracle@@@std@@@std@@@Z
?setRecipientName@Subscription@aq@occi@oracle@@QAEXABV?$basic_string@DU?$char_traits@D@std@@V?$allocator@D@2@@std@@@Z
?setRecipientName@SubscriptionImpl@aq@occi@oracle@@QAEXABV?$basic_string@DU?$char_traits@D@std@@V?$allocator@D@2@@std@@@Z
?setRef@AnyData@occi@oracle@@QAEXABVRefAny@23@@Z
?setRef@AnyDataImpl@occi@oracle@@QAEXABVRefAny@23@@Z
?setRef@StatementImpl@occi@oracle@@UAEXIABVRefAny@23@@Z
?setRef@StatementImpl@occi@oracle@@UAEXIABVRefAny@23@ABV?$basic_string@DU?$char_traits@D@std@@V?$allocator@D@2@@std@@1@Z
?setRef@StatementImpl@occi@oracle@@UAEXIABVRefAny@23@ABV?$basic_string@GU?$char_traits@G@std@@V?$allocator@G@2@@std@@1@Z
?setRefFromObjPtr@RefImpl@occi@oracle@@QAEXPBVPObject@23@@Z
?setRefImpl@RefImpl@occi@oracle@@QAEXPAV123@@Z
?setRelativeMessageId@Producer@aq@occi@oracle@@QAEXABVBytes@34@@Z
?setRelativeMessageId@ProducerImpl@aq@occi@oracle@@QAEXABVBytes@34@@Z
?setRowid@StatementImpl@occi@oracle@@UAEXIABVBytes@23@@Z
?setSQL@StatementImpl@occi@oracle@@UAEXABV?$basic_string@DU?$char_traits@D@std@@V?$allocator@D@2@@std@@@Z
?setSQLUString@StatementImpl@occi@oracle@@UAEXABV?$basic_string@GU?$char_traits@G@std@@V?$allocator@G@2@@std@@@Z
?setSenderId@Message@aq@occi@oracle@@QAEXABVAgent@234@@Z
?setSenderId@MessageImpl@aq@occi@oracle@@QAEXABVAgent@234@@Z
?setSequenceDeviation@Producer@aq@occi@oracle@@QAEXW4EnqueueSequence@1234@@Z
?setSequenceDeviation@ProducerImpl@aq@occi@oracle@@QAEXW4EnqueueSequence@Producer@234@@Z
?setStmtCacheSize@ConnectionImpl@occi@oracle@@UAEXI@Z
?setStmtCacheSize@ConnectionPoolImpl@occi@oracle@@UAEXI@Z
?setStmtCacheSize@StatelessConnectionPoolImpl@occi@oracle@@UAEXI@Z
?setString@AnyData@occi@oracle@@QAEXABV?$basic_string@DU?$char_traits@D@std@@V?$allocator@D@2@@std@@@Z
?setString@AnyDataImpl@occi@oracle@@QAEXABV?$basic_string@DU?$char_traits@D@std@@V?$allocator@D@2@@std@@@Z
?setString@StatementImpl@occi@oracle@@UAEXIABV?$basic_string@DU?$char_traits@D@std@@V?$allocator@D@2@@std@@@Z
?setSubscriptionName@Subscription@aq@occi@oracle@@QAEXABV?$basic_string@DU?$char_traits@D@std@@V?$allocator@D@2@@std@@@Z
?setSubscriptionName@SubscriptionImpl@aq@occi@oracle@@QAEXABV?$basic_string@DU?$char_traits@D@std@@V?$allocator@D@2@@std@@@Z
?setSubscriptionNamespace@Subscription@aq@occi@oracle@@QAEXW4Namespace@1234@@Z
?setSubscriptionNamespace@SubscriptionImpl@aq@occi@oracle@@QAEXW4Namespace@Subscription@234@@Z
?setTAFNotify@ConnectionImpl@occi@oracle@@UAEXP6AHPAVEnvironment@23@PAVConnection@23@PAXW4FailOverType@523@W4FailOverEventType@523@@Z2@Z
?setTDOs@ConnectionImpl@occi@oracle@@QAEXPAPAUOCIType@@@Z
?setTime@Timestamp@occi@oracle@@QAEXIIII@Z
?setTimeOut@ConnectionPoolImpl@occi@oracle@@UAEXI@Z
?setTimeOut@StatelessConnectionPoolImpl@occi@oracle@@UAEXI@Z
?setTimeOutForListen@Listener@aq@occi@oracle@@QAEXH@Z
?setTimeZoneOffset@Timestamp@occi@oracle@@QAEXHH@Z
?setTimestamp@AnyData@occi@oracle@@QAEXABVTimestamp@23@@Z
?setTimestamp@AnyDataImpl@occi@oracle@@QAEXABVTimestamp@23@@Z
?setTimestamp@StatementImpl@occi@oracle@@UAEXIABVTimestamp@23@@Z
?setTransformation@Consumer@aq@occi@oracle@@QAEXABV?$basic_string@DU?$char_traits@D@std@@V?$allocator@D@2@@std@@@Z
?setTransformation@ConsumerImpl@aq@occi@oracle@@QAEXABV?$basic_string@DU?$char_traits@D@std@@V?$allocator@D@2@@std@@@Z
?setTransformation@Producer@aq@occi@oracle@@QAEXABV?$basic_string@DU?$char_traits@D@std@@V?$allocator@D@2@@std@@@Z
?setTransformation@ProducerImpl@aq@occi@oracle@@QAEXABV?$basic_string@DU?$char_traits@D@std@@V?$allocator@D@2@@std@@@Z
?setUInt@StatementImpl@occi@oracle@@UAEXII@Z
?setUString@AnyData@occi@oracle@@QAEXABV?$basic_string@GU?$char_traits@G@std@@V?$allocator@G@2@@std@@@Z
?setUString@AnyDataImpl@occi@oracle@@QAEXABV?$basic_string@GU?$char_traits@G@std@@V?$allocator@G@2@@std@@@Z
?setUString@StatementImpl@occi@oracle@@UAEXIABV?$basic_string@GU?$char_traits@G@std@@V?$allocator@G@2@@std@@@Z
?setUserName@ConnectionImpl@occi@oracle@@AAEXPAXI_N@Z
?setVector@occi@oracle@@YAXAAVAnyData@12@ABV?$vector@UBDouble@occi@oracle@@V?$allocator@UBDouble@occi@oracle@@@std@@@std@@@Z
?setVector@occi@oracle@@YAXAAVAnyData@12@ABV?$vector@UBFloat@occi@oracle@@V?$allocator@UBFloat@occi@oracle@@@std@@@std@@@Z
?setVector@occi@oracle@@YAXAAVAnyData@12@ABV?$vector@V?$basic_string@DU?$char_traits@D@std@@V?$allocator@D@2@@std@@V?$allocator@V?$basic_string@DU?$char_traits@D@std@@V?$allocator@D@2@@std@@@2@@std@@@Z
?setVector@occi@oracle@@YAXAAVAnyData@12@ABV?$vector@V?$basic_string@GU?$char_traits@G@std@@V?$allocator@G@2@@std@@V?$allocator@V?$basic_string@GU?$char_traits@G@std@@V?$allocator@G@2@@std@@@2@@std@@@Z
?setVector@occi@oracle@@YAXAAVAnyData@12@ABV?$vector@VBfile@occi@oracle@@V?$allocator@VBfile@occi@oracle@@@std@@@std@@@Z
?setVector@occi@oracle@@YAXAAVAnyData@12@ABV?$vector@VBlob@occi@oracle@@V?$allocator@VBlob@occi@oracle@@@std@@@std@@@Z
?setVector@occi@oracle@@YAXAAVAnyData@12@ABV?$vector@VBytes@occi@oracle@@V?$allocator@VBytes@occi@oracle@@@std@@@std@@@Z
?setVector@occi@oracle@@YAXAAVAnyData@12@ABV?$vector@VClob@occi@oracle@@V?$allocator@VClob@occi@oracle@@@std@@@std@@@Z
?setVector@occi@oracle@@YAXAAVAnyData@12@ABV?$vector@VDate@occi@oracle@@V?$allocator@VDate@occi@oracle@@@std@@@std@@@Z
?setVector@occi@oracle@@YAXAAVAnyData@12@ABV?$vector@VIntervalDS@occi@oracle@@V?$allocator@VIntervalDS@occi@oracle@@@std@@@std@@@Z
?setVector@occi@oracle@@YAXAAVAnyData@12@ABV?$vector@VIntervalYM@occi@oracle@@V?$allocator@VIntervalYM@occi@oracle@@@std@@@std@@@Z
?setVector@occi@oracle@@YAXAAVAnyData@12@ABV?$vector@VNumber@occi@oracle@@V?$allocator@VNumber@occi@oracle@@@std@@@std@@@Z
?setVector@occi@oracle@@YAXAAVAnyData@12@ABV?$vector@VTimestamp@occi@oracle@@V?$allocator@VTimestamp@occi@oracle@@@std@@@std@@@Z
?setVector@occi@oracle@@YAXPAVStatement@12@IABV?$vector@HV?$allocator@H@std@@@std@@ABV?$basic_string@DU?$char_traits@D@std@@V?$allocator@D@2@@5@2@Z
?setVector@occi@oracle@@YAXPAVStatement@12@IABV?$vector@HV?$allocator@H@std@@@std@@ABV?$basic_string@DU?$char_traits@D@std@@V?$allocator@D@2@@5@@Z
?setVector@occi@oracle@@YAXPAVStatement@12@IABV?$vector@HV?$allocator@H@std@@@std@@ABV?$basic_string@GU?$char_traits@G@std@@V?$allocator@G@2@@5@2@Z
?setVector@occi@oracle@@YAXPAVStatement@12@IABV?$vector@IV?$allocator@I@std@@@std@@ABV?$basic_string@DU?$char_traits@D@std@@V?$allocator@D@2@@5@2@Z
?setVector@occi@oracle@@YAXPAVStatement@12@IABV?$vector@IV?$allocator@I@std@@@std@@ABV?$basic_string@DU?$char_traits@D@std@@V?$allocator@D@2@@5@@Z
?setVector@occi@oracle@@YAXPAVStatement@12@IABV?$vector@IV?$allocator@I@std@@@std@@ABV?$basic_string@GU?$char_traits@G@std@@V?$allocator@G@2@@5@2@Z
?setVector@occi@oracle@@YAXPAVStatement@12@IABV?$vector@MV?$allocator@M@std@@@std@@ABV?$basic_string@DU?$char_traits@D@std@@V?$allocator@D@2@@5@2@Z
?setVector@occi@oracle@@YAXPAVStatement@12@IABV?$vector@MV?$allocator@M@std@@@std@@ABV?$basic_string@DU?$char_traits@D@std@@V?$allocator@D@2@@5@@Z
?setVector@occi@oracle@@YAXPAVStatement@12@IABV?$vector@MV?$allocator@M@std@@@std@@ABV?$basic_string@GU?$char_traits@G@std@@V?$allocator@G@2@@5@2@Z
?setVector@occi@oracle@@YAXPAVStatement@12@IABV?$vector@NV?$allocator@N@std@@@std@@ABV?$basic_string@DU?$char_traits@D@std@@V?$allocator@D@2@@5@2@Z
?setVector@occi@oracle@@YAXPAVStatement@12@IABV?$vector@NV?$allocator@N@std@@@std@@ABV?$basic_string@DU?$char_traits@D@std@@V?$allocator@D@2@@5@@Z
?setVector@occi@oracle@@YAXPAVStatement@12@IABV?$vector@NV?$allocator@N@std@@@std@@ABV?$basic_string@GU?$char_traits@G@std@@V?$allocator@G@2@@5@2@Z
?setVector@occi@oracle@@YAXPAVStatement@12@IABV?$vector@UBDouble@occi@oracle@@V?$allocator@UBDouble@occi@oracle@@@std@@@std@@ABV?$basic_string@DU?$char_traits@D@std@@V?$allocator@D@2@@5@2@Z
?setVector@occi@oracle@@YAXPAVStatement@12@IABV?$vector@UBDouble@occi@oracle@@V?$allocator@UBDouble@occi@oracle@@@std@@@std@@ABV?$basic_string@DU?$char_traits@D@std@@V?$allocator@D@2@@5@@Z
?setVector@occi@oracle@@YAXPAVStatement@12@IABV?$vector@UBDouble@occi@oracle@@V?$allocator@UBDouble@occi@oracle@@@std@@@std@@ABV?$basic_string@GU?$char_traits@G@std@@V?$allocator@G@2@@5@2@Z
?setVector@occi@oracle@@YAXPAVStatement@12@IABV?$vector@UBFloat@occi@oracle@@V?$allocator@UBFloat@occi@oracle@@@std@@@std@@ABV?$basic_string@DU?$char_traits@D@std@@V?$allocator@D@2@@5@2@Z
?setVector@occi@oracle@@YAXPAVStatement@12@IABV?$vector@UBFloat@occi@oracle@@V?$allocator@UBFloat@occi@oracle@@@std@@@std@@ABV?$basic_string@DU?$char_traits@D@std@@V?$allocator@D@2@@5@@Z
?setVector@occi@oracle@@YAXPAVStatement@12@IABV?$vector@UBFloat@occi@oracle@@V?$allocator@UBFloat@occi@oracle@@@std@@@std@@ABV?$basic_string@GU?$char_traits@G@std@@V?$allocator@G@2@@5@2@Z
?setVector@occi@oracle@@YAXPAVStatement@12@IABV?$vector@V?$basic_string@DU?$char_traits@D@std@@V?$allocator@D@2@@std@@V?$allocator@V?$basic_string@DU?$char_traits@D@std@@V?$allocator@D@2@@std@@@2@@std@@ABV?$basic_string@DU?$char_traits@D@std@@V?$allocator@D@2@@5@2@Z
?setVector@occi@oracle@@YAXPAVStatement@12@IABV?$vector@V?$basic_string@DU?$char_traits@D@std@@V?$allocator@D@2@@std@@V?$allocator@V?$basic_string@DU?$char_traits@D@std@@V?$allocator@D@2@@std@@@2@@std@@ABV?$basic_string@DU?$char_traits@D@std@@V?$allocator@D@2@@5@@Z
?setVector@occi@oracle@@YAXPAVStatement@12@IABV?$vector@V?$basic_string@GU?$char_traits@G@std@@V?$allocator@G@2@@std@@V?$allocator@V?$basic_string@GU?$char_traits@G@std@@V?$allocator@G@2@@std@@@2@@std@@ABV?$basic_string@DU?$char_traits@D@std@@V?$allocator@D@2@@5@2@Z
?setVector@occi@oracle@@YAXPAVStatement@12@IABV?$vector@V?$basic_string@GU?$char_traits@G@std@@V?$allocator@G@2@@std@@V?$allocator@V?$basic_string@GU?$char_traits@G@std@@V?$allocator@G@2@@std@@@2@@std@@ABV?$basic_string@GU?$char_traits@G@std@@V?$allocator@G@2@@5@2@Z
?setVector@occi@oracle@@YAXPAVStatement@12@IABV?$vector@VBfile@occi@oracle@@V?$allocator@VBfile@occi@oracle@@@std@@@std@@ABV?$basic_string@DU?$char_traits@D@std@@V?$allocator@D@2@@5@2@Z
?setVector@occi@oracle@@YAXPAVStatement@12@IABV?$vector@VBfile@occi@oracle@@V?$allocator@VBfile@occi@oracle@@@std@@@std@@ABV?$basic_string@DU?$char_traits@D@std@@V?$allocator@D@2@@5@@Z
?setVector@occi@oracle@@YAXPAVStatement@12@IABV?$vector@VBfile@occi@oracle@@V?$allocator@VBfile@occi@oracle@@@std@@@std@@ABV?$basic_string@GU?$char_traits@G@std@@V?$allocator@G@2@@5@2@Z
?setVector@occi@oracle@@YAXPAVStatement@12@IABV?$vector@VBlob@occi@oracle@@V?$allocator@VBlob@occi@oracle@@@std@@@std@@ABV?$basic_string@DU?$char_traits@D@std@@V?$allocator@D@2@@5@2@Z
?setVector@occi@oracle@@YAXPAVStatement@12@IABV?$vector@VBlob@occi@oracle@@V?$allocator@VBlob@occi@oracle@@@std@@@std@@ABV?$basic_string@DU?$char_traits@D@std@@V?$allocator@D@2@@5@@Z
?setVector@occi@oracle@@YAXPAVStatement@12@IABV?$vector@VBlob@occi@oracle@@V?$allocator@VBlob@occi@oracle@@@std@@@std@@ABV?$basic_string@GU?$char_traits@G@std@@V?$allocator@G@2@@5@2@Z
?setVector@occi@oracle@@YAXPAVStatement@12@IABV?$vector@VClob@occi@oracle@@V?$allocator@VClob@occi@oracle@@@std@@@std@@ABV?$basic_string@DU?$char_traits@D@std@@V?$allocator@D@2@@5@2@Z
?setVector@occi@oracle@@YAXPAVStatement@12@IABV?$vector@VClob@occi@oracle@@V?$allocator@VClob@occi@oracle@@@std@@@std@@ABV?$basic_string@DU?$char_traits@D@std@@V?$allocator@D@2@@5@@Z
?setVector@occi@oracle@@YAXPAVStatement@12@IABV?$vector@VClob@occi@oracle@@V?$allocator@VClob@occi@oracle@@@std@@@std@@ABV?$basic_string@GU?$char_traits@G@std@@V?$allocator@G@2@@5@2@Z
?setVector@occi@oracle@@YAXPAVStatement@12@IABV?$vector@VDate@occi@oracle@@V?$allocator@VDate@occi@oracle@@@std@@@std@@ABV?$basic_string@DU?$char_traits@D@std@@V?$allocator@D@2@@5@2@Z
?setVector@occi@oracle@@YAXPAVStatement@12@IABV?$vector@VDate@occi@oracle@@V?$allocator@VDate@occi@oracle@@@std@@@std@@ABV?$basic_string@DU?$char_traits@D@std@@V?$allocator@D@2@@5@@Z
?setVector@occi@oracle@@YAXPAVStatement@12@IABV?$vector@VDate@occi@oracle@@V?$allocator@VDate@occi@oracle@@@std@@@std@@ABV?$basic_string@GU?$char_traits@G@std@@V?$allocator@G@2@@5@2@Z
?setVector@occi@oracle@@YAXPAVStatement@12@IABV?$vector@VIntervalDS@occi@oracle@@V?$allocator@VIntervalDS@occi@oracle@@@std@@@std@@ABV?$basic_string@DU?$char_traits@D@std@@V?$allocator@D@2@@5@2@Z
?setVector@occi@oracle@@YAXPAVStatement@12@IABV?$vector@VIntervalDS@occi@oracle@@V?$allocator@VIntervalDS@occi@oracle@@@std@@@std@@ABV?$basic_string@DU?$char_traits@D@std@@V?$allocator@D@2@@5@@Z
?setVector@occi@oracle@@YAXPAVStatement@12@IABV?$vector@VIntervalDS@occi@oracle@@V?$allocator@VIntervalDS@occi@oracle@@@std@@@std@@ABV?$basic_string@GU?$char_traits@G@std@@V?$allocator@G@2@@5@2@Z
?setVector@occi@oracle@@YAXPAVStatement@12@IABV?$vector@VIntervalYM@occi@oracle@@V?$allocator@VIntervalYM@occi@oracle@@@std@@@std@@ABV?$basic_string@DU?$char_traits@D@std@@V?$allocator@D@2@@5@2@Z
?setVector@occi@oracle@@YAXPAVStatement@12@IABV?$vector@VIntervalYM@occi@oracle@@V?$allocator@VIntervalYM@occi@oracle@@@std@@@std@@ABV?$basic_string@DU?$char_traits@D@std@@V?$allocator@D@2@@5@@Z
?setVector@occi@oracle@@YAXPAVStatement@12@IABV?$vector@VIntervalYM@occi@oracle@@V?$allocator@VIntervalYM@occi@oracle@@@std@@@std@@ABV?$basic_string@GU?$char_traits@G@std@@V?$allocator@G@2@@5@2@Z
?setVector@occi@oracle@@YAXPAVStatement@12@IABV?$vector@VNumber@occi@oracle@@V?$allocator@VNumber@occi@oracle@@@std@@@std@@ABV?$basic_string@DU?$char_traits@D@std@@V?$allocator@D@2@@5@2@Z
?setVector@occi@oracle@@YAXPAVStatement@12@IABV?$vector@VNumber@occi@oracle@@V?$allocator@VNumber@occi@oracle@@@std@@@std@@ABV?$basic_string@DU?$char_traits@D@std@@V?$allocator@D@2@@5@@Z
?setVector@occi@oracle@@YAXPAVStatement@12@IABV?$vector@VNumber@occi@oracle@@V?$allocator@VNumber@occi@oracle@@@std@@@std@@ABV?$basic_string@GU?$char_traits@G@std@@V?$allocator@G@2@@5@2@Z
?setVector@occi@oracle@@YAXPAVStatement@12@IABV?$vector@VRefAny@occi@oracle@@V?$allocator@VRefAny@occi@oracle@@@std@@@std@@ABV?$basic_string@DU?$char_traits@D@std@@V?$allocator@D@2@@5@2@Z
?setVector@occi@oracle@@YAXPAVStatement@12@IABV?$vector@VRefAny@occi@oracle@@V?$allocator@VRefAny@occi@oracle@@@std@@@std@@ABV?$basic_string@DU?$char_traits@D@std@@V?$allocator@D@2@@5@@Z
?setVector@occi@oracle@@YAXPAVStatement@12@IABV?$vector@VRefAny@occi@oracle@@V?$allocator@VRefAny@occi@oracle@@@std@@@std@@ABV?$basic_string@GU?$char_traits@G@std@@V?$allocator@G@2@@5@2@Z
?setVector@occi@oracle@@YAXPAVStatement@12@IABV?$vector@VTimestamp@occi@oracle@@V?$allocator@VTimestamp@occi@oracle@@@std@@@std@@ABV?$basic_string@DU?$char_traits@D@std@@V?$allocator@D@2@@5@2@Z
?setVector@occi@oracle@@YAXPAVStatement@12@IABV?$vector@VTimestamp@occi@oracle@@V?$allocator@VTimestamp@occi@oracle@@@std@@@std@@ABV?$basic_string@DU?$char_traits@D@std@@V?$allocator@D@2@@5@@Z
?setVector@occi@oracle@@YAXPAVStatement@12@IABV?$vector@VTimestamp@occi@oracle@@V?$allocator@VTimestamp@occi@oracle@@@std@@@std@@ABV?$basic_string@GU?$char_traits@G@std@@V?$allocator@G@2@@5@2@Z
?setVectorOfOCIRefs@occi@oracle@@YAXAAVAnyData@12@ABV?$vector@PAXV?$allocator@PAX@std@@@std@@ABV?$vector@FV?$allocator@F@std@@@5@@Z
?setVectorOfOCIRefs@occi@oracle@@YAXPAVStatement@12@IABV?$vector@PAXV?$allocator@PAX@std@@@std@@ABV?$vector@FV?$allocator@F@std@@@5@ABV?$basic_string@DU?$char_traits@D@std@@V?$allocator@D@2@@5@3@Z
?setVectorOfOCIRefs@occi@oracle@@YAXPAVStatement@12@IABV?$vector@PAXV?$allocator@PAX@std@@@std@@ABV?$vector@FV?$allocator@F@std@@@5@ABV?$basic_string@DU?$char_traits@D@std@@V?$allocator@D@2@@5@@Z
?setVectorOfOCIRefs@occi@oracle@@YAXPAVStatement@12@IABV?$vector@PAXV?$allocator@PAX@std@@@std@@ABV?$vector@FV?$allocator@F@std@@@5@ABV?$basic_string@GU?$char_traits@G@std@@V?$allocator@G@2@@5@3@Z
?setVectorOfPObjects@occi@oracle@@YAXAAVAnyData@12@ABV?$vector@PAVPObject@occi@oracle@@V?$allocator@PAVPObject@occi@oracle@@@std@@@std@@@Z
?setVectorOfPObjects@occi@oracle@@YAXPAVStatement@12@IABV?$vector@PAVPObject@occi@oracle@@V?$allocator@PAVPObject@occi@oracle@@@std@@@std@@ABV?$basic_string@DU?$char_traits@D@std@@V?$allocator@D@2@@5@2@Z
?setVectorOfPObjects@occi@oracle@@YAXPAVStatement@12@IABV?$vector@PAVPObject@occi@oracle@@V?$allocator@PAVPObject@occi@oracle@@@std@@@std@@ABV?$basic_string@DU?$char_traits@D@std@@V?$allocator@D@2@@5@@Z
?setVectorOfPObjects@occi@oracle@@YAXPAVStatement@12@IABV?$vector@PAVPObject@occi@oracle@@V?$allocator@PAVPObject@occi@oracle@@@std@@@std@@ABV?$basic_string@GU?$char_traits@G@std@@V?$allocator@G@2@@5@2@Z
?setVisibility@Consumer@aq@occi@oracle@@QAEXW4Visibility@1234@@Z
?setVisibility@ConsumerImpl@aq@occi@oracle@@QAEXW4Visibility@Consumer@234@@Z
?setVisibility@Producer@aq@occi@oracle@@QAEXW4Visibility@1234@@Z
?setVisibility@ProducerImpl@aq@occi@oracle@@QAEXW4Visibility@Producer@234@@Z
?setWaitTime@Consumer@aq@occi@oracle@@QAEXI@Z
?setWaitTime@ConsumerImpl@aq@occi@oracle@@QAEXI@Z
?shift@Number@occi@oracle@@QBE?BV123@H@Z
?sign@Number@occi@oracle@@QBEHXZ
?sin@Number@occi@oracle@@QBE?BV123@XZ
?squareroot@Number@occi@oracle@@QBE?BV123@XZ
?status@LobStreamImpl@occi@oracle@@UBE?AW4Status@Stream@23@XZ
?status@ResultSetImpl@occi@oracle@@UBE?AW4Status@ResultSet@23@XZ
?status@RsStreamImpl@occi@oracle@@UBE?AW4Status@Stream@23@XZ
?status@StatementImpl@occi@oracle@@UBE?AW4Status@Statement@23@XZ
?status@StmtStreamImpl@occi@oracle@@UBE?AW4Status@Stream@23@XZ
?subDS@Timestamp@occi@oracle@@QBE?BVIntervalDS@23@ABV123@@Z
?subYM@Timestamp@occi@oracle@@QBE?BVIntervalYM@23@ABV123@@Z
?tan@Number@occi@oracle@@QBE?BV123@XZ
?terminateConnection@ConnectionPoolImpl@occi@oracle@@UAEXPAVConnection@23@@Z
?terminateConnection@EnvironmentImpl@occi@oracle@@UAEXPAVConnection@23@@Z
?terminateConnection@StatelessConnectionPoolImpl@occi@oracle@@UAEXPAVConnection@23@@Z
?terminateConnectionPool@EnvironmentImpl@occi@oracle@@UAEXPAVConnectionPool@23@@Z
?terminateEnvironment@Environment@occi@oracle@@SAXPAV123@@Z
?terminateStatelessConnectionPool@EnvironmentImpl@occi@oracle@@UAEXPAVStatelessConnectionPool@23@W4DestroyMode@423@@Z
?terminateStatement@ConnectionImpl@occi@oracle@@UAEXPAVStatement@23@@Z
?terminateStatement@ConnectionImpl@occi@oracle@@UAEXPAVStatement@23@ABV?$basic_string@DU?$char_traits@D@std@@V?$allocator@D@2@@std@@@Z
?terminateStatement@ConnectionImpl@occi@oracle@@UAEXPAVStatement@23@ABV?$basic_string@GU?$char_traits@G@std@@V?$allocator@G@2@@std@@@Z
?toBytes@Date@occi@oracle@@QBE?AVBytes@23@XZ
?toBytes@Number@occi@oracle@@QBE?AVBytes@23@XZ
?toText@Date@occi@oracle@@QBE?AV?$basic_string@DU?$char_traits@D@std@@V?$allocator@D@2@@std@@ABV45@0@Z
?toText@Date@occi@oracle@@QBE?AV?$basic_string@GU?$char_traits@G@std@@V?$allocator@G@2@@std@@ABV45@0@Z
?toText@IntervalDS@occi@oracle@@QBE?AV?$basic_string@DU?$char_traits@D@std@@V?$allocator@D@2@@std@@IIABV45@@Z
?toText@IntervalYM@occi@oracle@@QBE?AV?$basic_string@DU?$char_traits@D@std@@V?$allocator@D@2@@std@@IABV45@@Z
?toText@Number@occi@oracle@@QBE?AV?$basic_string@DU?$char_traits@D@std@@V?$allocator@D@2@@std@@PBVEnvironment@23@ABV45@1@Z
?toText@Number@occi@oracle@@QBE?AV?$basic_string@GU?$char_traits@G@std@@V?$allocator@G@2@@std@@PBVEnvironment@23@ABV45@1@Z
?toText@Timestamp@occi@oracle@@QBE?AV?$basic_string@DU?$char_traits@D@std@@V?$allocator@D@2@@std@@ABV45@I0@Z
?toText@Timestamp@occi@oracle@@QBE?AV?$basic_string@GU?$char_traits@G@std@@V?$allocator@G@2@@std@@ABV45@I0@Z
?toUText@IntervalDS@occi@oracle@@QBE?AV?$basic_string@GU?$char_traits@G@std@@V?$allocator@G@2@@std@@II@Z
?toUText@IntervalYM@occi@oracle@@QBE?AV?$basic_string@GU?$char_traits@G@std@@V?$allocator@G@2@@std@@I@Z
?toZone@Date@occi@oracle@@QBE?AV123@ABV?$basic_string@DU?$char_traits@D@std@@V?$allocator@D@2@@std@@0@Z
?trim@Blob@occi@oracle@@QAEXI@Z
?trim@Clob@occi@oracle@@QAEXI@Z
?trunc@Number@occi@oracle@@QBE?BV123@H@Z
?unmark@PObject@occi@oracle@@QAEXXZ
?unmarkDelete@RefAny@occi@oracle@@QAEXXZ
?unmarkDelete@RefImpl@occi@oracle@@QAEXXZ
?unpin@PObject@occi@oracle@@QAEXW4UnpinOption@123@@Z
?unpin@RefImpl@occi@oracle@@QAEXPAVPObject@23@@Z
?unregisterSubscription@ConnectionImpl@occi@oracle@@UAEXABVSubscription@aq@23@@Z
?unregisterSubscription@EnvironmentImpl@occi@oracle@@UAEXABVSubscription@aq@23@@Z
?what@SQLException@occi@oracle@@UBEPBDXZ
?what@SQLExceptionImpl@occi@oracle@@QBEPBDXZ
?write@Blob@occi@oracle@@QAEIIPAEII@Z
?write@Clob@occi@oracle@@QAEIIPAEII@Z
?write@Clob@occi@oracle@@QAEIIPAGII@Z
?writeBuffer@LobStreamImpl@occi@oracle@@UAEXPADI@Z
?writeBuffer@RsStreamImpl@occi@oracle@@UAEXPADI@Z
?writeBuffer@StmtStreamImpl@occi@oracle@@UAEXPADI@Z
?writeChunk@Blob@occi@oracle@@QAEIIPAEII@Z
?writeChunk@Clob@occi@oracle@@QAEIIPAEII@Z
?writeChunk@Clob@occi@oracle@@QAEIIPAGII@Z
?writeCurrentStreamBuffer@StatementImpl@occi@oracle@@UAEXPADIEI@Z
?writeLastBuffer@LobStreamImpl@occi@oracle@@UAEXPADI@Z
?writeLastBuffer@RsStreamImpl@occi@oracle@@UAEXPADI@Z
?writeLastBuffer@StmtStreamImpl@occi@oracle@@UAEXPADI@Z
?writeVectorOfBlobs@occi@oracle@@YAXPBVConnection@12@AAV?$vector@VBlob@occi@oracle@@V?$allocator@VBlob@occi@oracle@@@std@@@std@@PA_K2QAPAE2@Z
?writeVectorOfClobs@occi@oracle@@YAXPBVConnection@12@AAV?$vector@VClob@occi@oracle@@V?$allocator@VClob@occi@oracle@@@std@@@std@@PA_K22QAPAE2@Z
?writeVectorOfClobs@occi@oracle@@YAXPBVConnection@12@AAV?$vector@VClob@occi@oracle@@V?$allocator@VClob@occi@oracle@@@std@@@std@@PA_K22QAPAG2@Z
